
a.out:     file format elf64-x86-64


Disassembly of section .init:

0000000000400518 <_init>:
  400518:	48 83 ec 08          	sub    rsp,0x8
  40051c:	48 8b 05 d5 2a 20 00 	mov    rax,QWORD PTR [rip+0x202ad5]        # 602ff8 <_DYNAMIC+0x1d0>
  400523:	48 85 c0             	test   rax,rax
  400526:	74 05                	je     40052d <_init+0x15>
  400528:	e8 83 00 00 00       	call   4005b0 <__printf_chk@plt+0x10>
  40052d:	48 83 c4 08          	add    rsp,0x8
  400531:	c3                   	ret    

Disassembly of section .plt:

0000000000400540 <free@plt-0x10>:
  400540:	ff 35 c2 2a 20 00    	push   QWORD PTR [rip+0x202ac2]        # 603008 <_GLOBAL_OFFSET_TABLE_+0x8>
  400546:	ff 25 c4 2a 20 00    	jmp    QWORD PTR [rip+0x202ac4]        # 603010 <_GLOBAL_OFFSET_TABLE_+0x10>
  40054c:	0f 1f 40 00          	nop    DWORD PTR [rax+0x0]

0000000000400550 <free@plt>:
  400550:	ff 25 c2 2a 20 00    	jmp    QWORD PTR [rip+0x202ac2]        # 603018 <_GLOBAL_OFFSET_TABLE_+0x18>
  400556:	68 00 00 00 00       	push   0x0
  40055b:	e9 e0 ff ff ff       	jmp    400540 <_init+0x28>

0000000000400560 <clock_gettime@plt>:
  400560:	ff 25 ba 2a 20 00    	jmp    QWORD PTR [rip+0x202aba]        # 603020 <_GLOBAL_OFFSET_TABLE_+0x20>
  400566:	68 01 00 00 00       	push   0x1
  40056b:	e9 d0 ff ff ff       	jmp    400540 <_init+0x28>

0000000000400570 <__stack_chk_fail@plt>:
  400570:	ff 25 b2 2a 20 00    	jmp    QWORD PTR [rip+0x202ab2]        # 603028 <_GLOBAL_OFFSET_TABLE_+0x28>
  400576:	68 02 00 00 00       	push   0x2
  40057b:	e9 c0 ff ff ff       	jmp    400540 <_init+0x28>

0000000000400580 <__libc_start_main@plt>:
  400580:	ff 25 aa 2a 20 00    	jmp    QWORD PTR [rip+0x202aaa]        # 603030 <_GLOBAL_OFFSET_TABLE_+0x30>
  400586:	68 03 00 00 00       	push   0x3
  40058b:	e9 b0 ff ff ff       	jmp    400540 <_init+0x28>

0000000000400590 <malloc@plt>:
  400590:	ff 25 a2 2a 20 00    	jmp    QWORD PTR [rip+0x202aa2]        # 603038 <_GLOBAL_OFFSET_TABLE_+0x38>
  400596:	68 04 00 00 00       	push   0x4
  40059b:	e9 a0 ff ff ff       	jmp    400540 <_init+0x28>

00000000004005a0 <__printf_chk@plt>:
  4005a0:	ff 25 9a 2a 20 00    	jmp    QWORD PTR [rip+0x202a9a]        # 603040 <_GLOBAL_OFFSET_TABLE_+0x40>
  4005a6:	68 05 00 00 00       	push   0x5
  4005ab:	e9 90 ff ff ff       	jmp    400540 <_init+0x28>

Disassembly of section .plt.got:

00000000004005b0 <.plt.got>:
  4005b0:	ff 25 42 2a 20 00    	jmp    QWORD PTR [rip+0x202a42]        # 602ff8 <_DYNAMIC+0x1d0>
  4005b6:	66 90                	xchg   ax,ax

Disassembly of section .text:

00000000004005c0 <main>:
  4005c0:	48 83 ec 08          	sub    rsp,0x8
  4005c4:	bf a0 86 01 00       	mov    edi,0x186a0
  4005c9:	e8 f2 15 00 00       	call   401bc0 <benchmark_hamming_length>
  4005ce:	bf 40 42 0f 00       	mov    edi,0xf4240
  4005d3:	e8 e8 15 00 00       	call   401bc0 <benchmark_hamming_length>
  4005d8:	bf 80 96 98 00       	mov    edi,0x989680
  4005dd:	e8 de 15 00 00       	call   401bc0 <benchmark_hamming_length>
  4005e2:	bf 00 e1 f5 05       	mov    edi,0x5f5e100
  4005e7:	e8 d4 15 00 00       	call   401bc0 <benchmark_hamming_length>
  4005ec:	bf 00 ca 9a 3b       	mov    edi,0x3b9aca00
  4005f1:	e8 ca 15 00 00       	call   401bc0 <benchmark_hamming_length>
  4005f6:	31 c0                	xor    eax,eax
  4005f8:	48 83 c4 08          	add    rsp,0x8
  4005fc:	c3                   	ret    
  4005fd:	0f 1f 00             	nop    DWORD PTR [rax]

0000000000400600 <_start>:
  400600:	31 ed                	xor    ebp,ebp
  400602:	49 89 d1             	mov    r9,rdx
  400605:	5e                   	pop    rsi
  400606:	48 89 e2             	mov    rdx,rsp
  400609:	48 83 e4 f0          	and    rsp,0xfffffffffffffff0
  40060d:	50                   	push   rax
  40060e:	54                   	push   rsp
  40060f:	49 c7 c0 f0 28 40 00 	mov    r8,0x4028f0
  400616:	48 c7 c1 80 28 40 00 	mov    rcx,0x402880
  40061d:	48 c7 c7 c0 05 40 00 	mov    rdi,0x4005c0
  400624:	e8 57 ff ff ff       	call   400580 <__libc_start_main@plt>
  400629:	f4                   	hlt    
  40062a:	66 0f 1f 44 00 00    	nop    WORD PTR [rax+rax*1+0x0]

0000000000400630 <deregister_tm_clones>:
  400630:	b8 5f 30 60 00       	mov    eax,0x60305f
  400635:	55                   	push   rbp
  400636:	48 2d 58 30 60 00    	sub    rax,0x603058
  40063c:	48 83 f8 0e          	cmp    rax,0xe
  400640:	48 89 e5             	mov    rbp,rsp
  400643:	76 1b                	jbe    400660 <deregister_tm_clones+0x30>
  400645:	b8 00 00 00 00       	mov    eax,0x0
  40064a:	48 85 c0             	test   rax,rax
  40064d:	74 11                	je     400660 <deregister_tm_clones+0x30>
  40064f:	5d                   	pop    rbp
  400650:	bf 58 30 60 00       	mov    edi,0x603058
  400655:	ff e0                	jmp    rax
  400657:	66 0f 1f 84 00 00 00 	nop    WORD PTR [rax+rax*1+0x0]
  40065e:	00 00 
  400660:	5d                   	pop    rbp
  400661:	c3                   	ret    
  400662:	0f 1f 40 00          	nop    DWORD PTR [rax+0x0]
  400666:	66 2e 0f 1f 84 00 00 	nop    WORD PTR cs:[rax+rax*1+0x0]
  40066d:	00 00 00 

0000000000400670 <register_tm_clones>:
  400670:	be 58 30 60 00       	mov    esi,0x603058
  400675:	55                   	push   rbp
  400676:	48 81 ee 58 30 60 00 	sub    rsi,0x603058
  40067d:	48 c1 fe 03          	sar    rsi,0x3
  400681:	48 89 e5             	mov    rbp,rsp
  400684:	48 89 f0             	mov    rax,rsi
  400687:	48 c1 e8 3f          	shr    rax,0x3f
  40068b:	48 01 c6             	add    rsi,rax
  40068e:	48 d1 fe             	sar    rsi,1
  400691:	74 15                	je     4006a8 <register_tm_clones+0x38>
  400693:	b8 00 00 00 00       	mov    eax,0x0
  400698:	48 85 c0             	test   rax,rax
  40069b:	74 0b                	je     4006a8 <register_tm_clones+0x38>
  40069d:	5d                   	pop    rbp
  40069e:	bf 58 30 60 00       	mov    edi,0x603058
  4006a3:	ff e0                	jmp    rax
  4006a5:	0f 1f 00             	nop    DWORD PTR [rax]
  4006a8:	5d                   	pop    rbp
  4006a9:	c3                   	ret    
  4006aa:	66 0f 1f 44 00 00    	nop    WORD PTR [rax+rax*1+0x0]

00000000004006b0 <__do_global_dtors_aux>:
  4006b0:	80 3d a1 29 20 00 00 	cmp    BYTE PTR [rip+0x2029a1],0x0        # 603058 <__TMC_END__>
  4006b7:	75 11                	jne    4006ca <__do_global_dtors_aux+0x1a>
  4006b9:	55                   	push   rbp
  4006ba:	48 89 e5             	mov    rbp,rsp
  4006bd:	e8 6e ff ff ff       	call   400630 <deregister_tm_clones>
  4006c2:	5d                   	pop    rbp
  4006c3:	c6 05 8e 29 20 00 01 	mov    BYTE PTR [rip+0x20298e],0x1        # 603058 <__TMC_END__>
  4006ca:	f3 c3                	repz ret 
  4006cc:	0f 1f 40 00          	nop    DWORD PTR [rax+0x0]

00000000004006d0 <frame_dummy>:
  4006d0:	bf 20 2e 60 00       	mov    edi,0x602e20
  4006d5:	48 83 3f 00          	cmp    QWORD PTR [rdi],0x0
  4006d9:	75 05                	jne    4006e0 <frame_dummy+0x10>
  4006db:	eb 93                	jmp    400670 <register_tm_clones>
  4006dd:	0f 1f 00             	nop    DWORD PTR [rax]
  4006e0:	b8 00 00 00 00       	mov    eax,0x0
  4006e5:	48 85 c0             	test   rax,rax
  4006e8:	74 f1                	je     4006db <frame_dummy+0xb>
  4006ea:	55                   	push   rbp
  4006eb:	48 89 e5             	mov    rbp,rsp
  4006ee:	ff d0                	call   rax
  4006f0:	5d                   	pop    rbp
  4006f1:	e9 7a ff ff ff       	jmp    400670 <register_tm_clones>
  4006f6:	66 2e 0f 1f 84 00 00 	nop    WORD PTR cs:[rax+rax*1+0x0]
  4006fd:	00 00 00 

0000000000400700 <hamming_distance>:
  400700:	85 d2                	test   edx,edx
  400702:	0f 8e 00 03 00 00    	jle    400a08 <hamming_distance+0x308>
  400708:	49 89 fb             	mov    r11,rdi
  40070b:	4c 8d 54 24 08       	lea    r10,[rsp+0x8]
  400710:	48 83 e4 e0          	and    rsp,0xffffffffffffffe0
  400714:	41 83 e3 1f          	and    r11d,0x1f
  400718:	49 d1 eb             	shr    r11,1
  40071b:	41 ff 72 f8          	push   QWORD PTR [r10-0x8]
  40071f:	55                   	push   rbp
  400720:	49 f7 db             	neg    r11
  400723:	41 83 e3 0f          	and    r11d,0xf
  400727:	48 89 e5             	mov    rbp,rsp
  40072a:	41 56                	push   r14
  40072c:	41 39 d3             	cmp    r11d,edx
  40072f:	41 55                	push   r13
  400731:	41 54                	push   r12
  400733:	44 0f 47 da          	cmova  r11d,edx
  400737:	83 fa 12             	cmp    edx,0x12
  40073a:	41 52                	push   r10
  40073c:	53                   	push   rbx
  40073d:	89 d3                	mov    ebx,edx
  40073f:	0f 8f 8b 02 00 00    	jg     4009d0 <hamming_distance+0x2d0>
  400745:	41 89 d3             	mov    r11d,edx
  400748:	41 89 d1             	mov    r9d,edx
  40074b:	48 89 f1             	mov    rcx,rsi
  40074e:	49 89 f8             	mov    r8,rdi
  400751:	45 29 d9             	sub    r9d,r11d
  400754:	31 c0                	xor    eax,eax
  400756:	66 2e 0f 1f 84 00 00 	nop    WORD PTR cs:[rax+rax*1+0x0]
  40075d:	00 00 00 
  400760:	44 0f b7 31          	movzx  r14d,WORD PTR [rcx]
  400764:	45 31 d2             	xor    r10d,r10d
  400767:	66 45 39 30          	cmp    WORD PTR [r8],r14w
  40076b:	41 0f 95 c2          	setne  r10b
  40076f:	83 ea 01             	sub    edx,0x1
  400772:	49 83 c0 02          	add    r8,0x2
  400776:	44 01 d0             	add    eax,r10d
  400779:	48 83 c1 02          	add    rcx,0x2
  40077d:	44 39 ca             	cmp    edx,r9d
  400780:	75 de                	jne    400760 <hamming_distance+0x60>
  400782:	44 39 db             	cmp    ebx,r11d
  400785:	0f 84 32 02 00 00    	je     4009bd <hamming_distance+0x2bd>
  40078b:	41 89 dd             	mov    r13d,ebx
  40078e:	8d 53 ff             	lea    edx,[rbx-0x1]
  400791:	45 89 de             	mov    r14d,r11d
  400794:	45 29 dd             	sub    r13d,r11d
  400797:	45 8d 55 f0          	lea    r10d,[r13-0x10]
  40079b:	44 29 da             	sub    edx,r11d
  40079e:	41 c1 ea 04          	shr    r10d,0x4
  4007a2:	41 83 c2 01          	add    r10d,0x1
  4007a6:	45 89 d4             	mov    r12d,r10d
  4007a9:	41 c1 e4 04          	shl    r12d,0x4
  4007ad:	83 fa 0e             	cmp    edx,0xe
  4007b0:	0f 86 a5 00 00 00    	jbe    40085b <hamming_distance+0x15b>
  4007b6:	4b 8d 14 36          	lea    rdx,[r14+r14*1]
  4007ba:	c5 f9 ef c0          	vpxor  xmm0,xmm0,xmm0
  4007be:	c5 fd 6f 1d da 21 00 	vmovdqa ymm3,YMMWORD PTR [rip+0x21da]        # 4029a0 <_IO_stdin_used+0xa0>
  4007c5:	00 
  4007c6:	45 31 db             	xor    r11d,r11d
  4007c9:	48 01 d7             	add    rdi,rdx
  4007cc:	48 01 d6             	add    rsi,rdx
  4007cf:	31 d2                	xor    edx,edx
  4007d1:	c5 fa 6f 0c 16       	vmovdqu xmm1,XMMWORD PTR [rsi+rdx*1]
  4007d6:	41 83 c3 01          	add    r11d,0x1
  4007da:	c4 e3 75 38 4c 16 10 	vinserti128 ymm1,ymm1,XMMWORD PTR [rsi+rdx*1+0x10],0x1
  4007e1:	01 
  4007e2:	c5 f5 75 0c 17       	vpcmpeqw ymm1,ymm1,YMMWORD PTR [rdi+rdx*1]
  4007e7:	48 83 c2 20          	add    rdx,0x20
  4007eb:	45 39 da             	cmp    r10d,r11d
  4007ee:	c5 f5 df cb          	vpandn ymm1,ymm1,ymm3
  4007f2:	c4 e2 7d 23 d1       	vpmovsxwd ymm2,xmm1
  4007f7:	c4 e3 7d 39 c9 01    	vextracti128 xmm1,ymm1,0x1
  4007fd:	c5 ed fe c0          	vpaddd ymm0,ymm2,ymm0
  400801:	c4 e2 7d 23 c9       	vpmovsxwd ymm1,xmm1
  400806:	c5 f5 fe c0          	vpaddd ymm0,ymm1,ymm0
  40080a:	77 c5                	ja     4007d1 <hamming_distance+0xd1>
  40080c:	c5 f1 ef c9          	vpxor  xmm1,xmm1,xmm1
  400810:	45 29 e1             	sub    r9d,r12d
  400813:	c4 e3 7d 46 d1 21    	vperm2i128 ymm2,ymm0,ymm1,0x21
  400819:	c5 fd fe c2          	vpaddd ymm0,ymm0,ymm2
  40081d:	c4 e3 7d 46 d1 21    	vperm2i128 ymm2,ymm0,ymm1,0x21
  400823:	c4 e3 6d 0f d0 08    	vpalignr ymm2,ymm2,ymm0,0x8
  400829:	c5 fd fe c2          	vpaddd ymm0,ymm0,ymm2
  40082d:	c4 e3 7d 46 c9 21    	vperm2i128 ymm1,ymm0,ymm1,0x21
  400833:	c4 e3 75 0f c8 04    	vpalignr ymm1,ymm1,ymm0,0x4
  400839:	c5 fd fe c1          	vpaddd ymm0,ymm0,ymm1
  40083d:	c5 f9 7e c2          	vmovd  edx,xmm0
  400841:	01 d0                	add    eax,edx
  400843:	44 89 e2             	mov    edx,r12d
  400846:	48 01 d2             	add    rdx,rdx
  400849:	49 01 d0             	add    r8,rdx
  40084c:	48 01 d1             	add    rcx,rdx
  40084f:	45 39 e5             	cmp    r13d,r12d
  400852:	0f 84 98 01 00 00    	je     4009f0 <hamming_distance+0x2f0>
  400858:	c5 f8 77             	vzeroupper 
  40085b:	41 0f b7 38          	movzx  edi,WORD PTR [r8]
  40085f:	31 d2                	xor    edx,edx
  400861:	66 39 39             	cmp    WORD PTR [rcx],di
  400864:	0f 95 c2             	setne  dl
  400867:	01 d0                	add    eax,edx
  400869:	41 83 f9 01          	cmp    r9d,0x1
  40086d:	0f 84 4a 01 00 00    	je     4009bd <hamming_distance+0x2bd>
  400873:	0f b7 71 02          	movzx  esi,WORD PTR [rcx+0x2]
  400877:	31 d2                	xor    edx,edx
  400879:	66 41 39 70 02       	cmp    WORD PTR [r8+0x2],si
  40087e:	0f 95 c2             	setne  dl
  400881:	01 d0                	add    eax,edx
  400883:	41 83 f9 02          	cmp    r9d,0x2
  400887:	0f 84 30 01 00 00    	je     4009bd <hamming_distance+0x2bd>
  40088d:	0f b7 59 04          	movzx  ebx,WORD PTR [rcx+0x4]
  400891:	31 d2                	xor    edx,edx
  400893:	66 41 39 58 04       	cmp    WORD PTR [r8+0x4],bx
  400898:	0f 95 c2             	setne  dl
  40089b:	01 d0                	add    eax,edx
  40089d:	41 83 f9 03          	cmp    r9d,0x3
  4008a1:	0f 84 16 01 00 00    	je     4009bd <hamming_distance+0x2bd>
  4008a7:	0f b7 79 06          	movzx  edi,WORD PTR [rcx+0x6]
  4008ab:	31 d2                	xor    edx,edx
  4008ad:	66 41 39 78 06       	cmp    WORD PTR [r8+0x6],di
  4008b2:	0f 95 c2             	setne  dl
  4008b5:	01 d0                	add    eax,edx
  4008b7:	41 83 f9 04          	cmp    r9d,0x4
  4008bb:	0f 84 fc 00 00 00    	je     4009bd <hamming_distance+0x2bd>
  4008c1:	0f b7 71 08          	movzx  esi,WORD PTR [rcx+0x8]
  4008c5:	31 d2                	xor    edx,edx
  4008c7:	66 41 39 70 08       	cmp    WORD PTR [r8+0x8],si
  4008cc:	0f 95 c2             	setne  dl
  4008cf:	01 d0                	add    eax,edx
  4008d1:	41 83 f9 05          	cmp    r9d,0x5
  4008d5:	0f 84 e2 00 00 00    	je     4009bd <hamming_distance+0x2bd>
  4008db:	0f b7 59 0a          	movzx  ebx,WORD PTR [rcx+0xa]
  4008df:	31 d2                	xor    edx,edx
  4008e1:	66 41 39 58 0a       	cmp    WORD PTR [r8+0xa],bx
  4008e6:	0f 95 c2             	setne  dl
  4008e9:	01 d0                	add    eax,edx
  4008eb:	41 83 f9 06          	cmp    r9d,0x6
  4008ef:	0f 84 c8 00 00 00    	je     4009bd <hamming_distance+0x2bd>
  4008f5:	0f b7 79 0c          	movzx  edi,WORD PTR [rcx+0xc]
  4008f9:	31 d2                	xor    edx,edx
  4008fb:	66 41 39 78 0c       	cmp    WORD PTR [r8+0xc],di
  400900:	0f 95 c2             	setne  dl
  400903:	01 d0                	add    eax,edx
  400905:	41 83 f9 07          	cmp    r9d,0x7
  400909:	0f 84 ae 00 00 00    	je     4009bd <hamming_distance+0x2bd>
  40090f:	0f b7 71 0e          	movzx  esi,WORD PTR [rcx+0xe]
  400913:	31 d2                	xor    edx,edx
  400915:	66 41 39 70 0e       	cmp    WORD PTR [r8+0xe],si
  40091a:	0f 95 c2             	setne  dl
  40091d:	01 d0                	add    eax,edx
  40091f:	41 83 f9 08          	cmp    r9d,0x8
  400923:	0f 84 94 00 00 00    	je     4009bd <hamming_distance+0x2bd>
  400929:	0f b7 59 10          	movzx  ebx,WORD PTR [rcx+0x10]
  40092d:	31 d2                	xor    edx,edx
  40092f:	66 41 39 58 10       	cmp    WORD PTR [r8+0x10],bx
  400934:	0f 95 c2             	setne  dl
  400937:	01 d0                	add    eax,edx
  400939:	41 83 f9 09          	cmp    r9d,0x9
  40093d:	74 7e                	je     4009bd <hamming_distance+0x2bd>
  40093f:	0f b7 79 12          	movzx  edi,WORD PTR [rcx+0x12]
  400943:	31 d2                	xor    edx,edx
  400945:	66 41 39 78 12       	cmp    WORD PTR [r8+0x12],di
  40094a:	0f 95 c2             	setne  dl
  40094d:	01 d0                	add    eax,edx
  40094f:	41 83 f9 0a          	cmp    r9d,0xa
  400953:	74 68                	je     4009bd <hamming_distance+0x2bd>
  400955:	0f b7 71 14          	movzx  esi,WORD PTR [rcx+0x14]
  400959:	31 d2                	xor    edx,edx
  40095b:	66 41 39 70 14       	cmp    WORD PTR [r8+0x14],si
  400960:	0f 95 c2             	setne  dl
  400963:	01 d0                	add    eax,edx
  400965:	41 83 f9 0b          	cmp    r9d,0xb
  400969:	74 52                	je     4009bd <hamming_distance+0x2bd>
  40096b:	0f b7 59 16          	movzx  ebx,WORD PTR [rcx+0x16]
  40096f:	31 d2                	xor    edx,edx
  400971:	66 41 39 58 16       	cmp    WORD PTR [r8+0x16],bx
  400976:	0f 95 c2             	setne  dl
  400979:	01 d0                	add    eax,edx
  40097b:	41 83 f9 0c          	cmp    r9d,0xc
  40097f:	74 3c                	je     4009bd <hamming_distance+0x2bd>
  400981:	0f b7 79 18          	movzx  edi,WORD PTR [rcx+0x18]
  400985:	31 d2                	xor    edx,edx
  400987:	66 41 39 78 18       	cmp    WORD PTR [r8+0x18],di
  40098c:	0f 95 c2             	setne  dl
  40098f:	01 d0                	add    eax,edx
  400991:	41 83 f9 0d          	cmp    r9d,0xd
  400995:	74 26                	je     4009bd <hamming_distance+0x2bd>
  400997:	0f b7 71 1a          	movzx  esi,WORD PTR [rcx+0x1a]
  40099b:	31 d2                	xor    edx,edx
  40099d:	66 41 39 70 1a       	cmp    WORD PTR [r8+0x1a],si
  4009a2:	0f 95 c2             	setne  dl
  4009a5:	01 d0                	add    eax,edx
  4009a7:	41 83 f9 0e          	cmp    r9d,0xe
  4009ab:	74 10                	je     4009bd <hamming_distance+0x2bd>
  4009ad:	0f b7 71 1c          	movzx  esi,WORD PTR [rcx+0x1c]
  4009b1:	31 d2                	xor    edx,edx
  4009b3:	66 41 39 70 1c       	cmp    WORD PTR [r8+0x1c],si
  4009b8:	0f 95 c2             	setne  dl
  4009bb:	01 d0                	add    eax,edx
  4009bd:	5b                   	pop    rbx
  4009be:	41 5a                	pop    r10
  4009c0:	41 5c                	pop    r12
  4009c2:	41 5d                	pop    r13
  4009c4:	41 5e                	pop    r14
  4009c6:	5d                   	pop    rbp
  4009c7:	49 8d 62 f8          	lea    rsp,[r10-0x8]
  4009cb:	c3                   	ret    
  4009cc:	0f 1f 40 00          	nop    DWORD PTR [rax+0x0]
  4009d0:	45 85 db             	test   r11d,r11d
  4009d3:	0f 85 6f fd ff ff    	jne    400748 <hamming_distance+0x48>
  4009d9:	41 89 d1             	mov    r9d,edx
  4009dc:	48 89 f1             	mov    rcx,rsi
  4009df:	49 89 f8             	mov    r8,rdi
  4009e2:	31 c0                	xor    eax,eax
  4009e4:	e9 a2 fd ff ff       	jmp    40078b <hamming_distance+0x8b>
  4009e9:	0f 1f 80 00 00 00 00 	nop    DWORD PTR [rax+0x0]
  4009f0:	c5 f8 77             	vzeroupper 
  4009f3:	5b                   	pop    rbx
  4009f4:	41 5a                	pop    r10
  4009f6:	41 5c                	pop    r12
  4009f8:	41 5d                	pop    r13
  4009fa:	41 5e                	pop    r14
  4009fc:	5d                   	pop    rbp
  4009fd:	49 8d 62 f8          	lea    rsp,[r10-0x8]
  400a01:	c3                   	ret    
  400a02:	66 0f 1f 44 00 00    	nop    WORD PTR [rax+rax*1+0x0]
  400a08:	31 c0                	xor    eax,eax
  400a0a:	c3                   	ret    
  400a0b:	0f 1f 44 00 00       	nop    DWORD PTR [rax+rax*1+0x0]

0000000000400a10 <tmetrics_hamming>:
  400a10:	85 ff                	test   edi,edi
  400a12:	0f 84 98 04 00 00    	je     400eb0 <tmetrics_hamming+0x4a0>
  400a18:	48 89 f1             	mov    rcx,rsi
  400a1b:	4c 8d 54 24 08       	lea    r10,[rsp+0x8]
  400a20:	48 83 e4 e0          	and    rsp,0xffffffffffffffe0
  400a24:	83 e1 1f             	and    ecx,0x1f
  400a27:	48 d1 e9             	shr    rcx,1
  400a2a:	41 ff 72 f8          	push   QWORD PTR [r10-0x8]
  400a2e:	55                   	push   rbp
  400a2f:	48 f7 d9             	neg    rcx
  400a32:	83 e1 0f             	and    ecx,0xf
  400a35:	48 89 e5             	mov    rbp,rsp
  400a38:	41 55                	push   r13
  400a3a:	39 f9                	cmp    ecx,edi
  400a3c:	41 54                	push   r12
  400a3e:	41 52                	push   r10
  400a40:	0f 47 cf             	cmova  ecx,edi
  400a43:	83 ff 11             	cmp    edi,0x11
  400a46:	53                   	push   rbx
  400a47:	0f 87 33 04 00 00    	ja     400e80 <tmetrics_hamming+0x470>
  400a4d:	89 f9                	mov    ecx,edi
  400a4f:	0f b7 02             	movzx  eax,WORD PTR [rdx]
  400a52:	66 39 06             	cmp    WORD PTR [rsi],ax
  400a55:	0f 95 c0             	setne  al
  400a58:	83 f9 01             	cmp    ecx,0x1
  400a5b:	0f b6 c0             	movzx  eax,al
  400a5e:	0f 84 c4 04 00 00    	je     400f28 <tmetrics_hamming+0x518>
  400a64:	0f b7 5a 02          	movzx  ebx,WORD PTR [rdx+0x2]
  400a68:	45 31 c0             	xor    r8d,r8d
  400a6b:	66 39 5e 02          	cmp    WORD PTR [rsi+0x2],bx
  400a6f:	41 0f 95 c0          	setne  r8b
  400a73:	44 01 c0             	add    eax,r8d
  400a76:	83 f9 02             	cmp    ecx,0x2
  400a79:	0f 84 59 04 00 00    	je     400ed8 <tmetrics_hamming+0x4c8>
  400a7f:	0f b7 5a 04          	movzx  ebx,WORD PTR [rdx+0x4]
  400a83:	45 31 c0             	xor    r8d,r8d
  400a86:	66 39 5e 04          	cmp    WORD PTR [rsi+0x4],bx
  400a8a:	41 0f 95 c0          	setne  r8b
  400a8e:	44 01 c0             	add    eax,r8d
  400a91:	83 f9 03             	cmp    ecx,0x3
  400a94:	0f 84 0e 05 00 00    	je     400fa8 <tmetrics_hamming+0x598>
  400a9a:	0f b7 5a 06          	movzx  ebx,WORD PTR [rdx+0x6]
  400a9e:	45 31 c0             	xor    r8d,r8d
  400aa1:	66 39 5e 06          	cmp    WORD PTR [rsi+0x6],bx
  400aa5:	41 0f 95 c0          	setne  r8b
  400aa9:	44 01 c0             	add    eax,r8d
  400aac:	83 f9 04             	cmp    ecx,0x4
  400aaf:	0f 84 43 04 00 00    	je     400ef8 <tmetrics_hamming+0x4e8>
  400ab5:	0f b7 5a 08          	movzx  ebx,WORD PTR [rdx+0x8]
  400ab9:	45 31 c0             	xor    r8d,r8d
  400abc:	66 39 5e 08          	cmp    WORD PTR [rsi+0x8],bx
  400ac0:	41 0f 95 c0          	setne  r8b
  400ac4:	44 01 c0             	add    eax,r8d
  400ac7:	83 f9 05             	cmp    ecx,0x5
  400aca:	0f 84 38 04 00 00    	je     400f08 <tmetrics_hamming+0x4f8>
  400ad0:	0f b7 5a 0a          	movzx  ebx,WORD PTR [rdx+0xa]
  400ad4:	45 31 c0             	xor    r8d,r8d
  400ad7:	66 39 5e 0a          	cmp    WORD PTR [rsi+0xa],bx
  400adb:	41 0f 95 c0          	setne  r8b
  400adf:	44 01 c0             	add    eax,r8d
  400ae2:	83 f9 06             	cmp    ecx,0x6
  400ae5:	0f 84 2d 04 00 00    	je     400f18 <tmetrics_hamming+0x508>
  400aeb:	0f b7 5a 0c          	movzx  ebx,WORD PTR [rdx+0xc]
  400aef:	45 31 c0             	xor    r8d,r8d
  400af2:	66 39 5e 0c          	cmp    WORD PTR [rsi+0xc],bx
  400af6:	41 0f 95 c0          	setne  r8b
  400afa:	44 01 c0             	add    eax,r8d
  400afd:	83 f9 07             	cmp    ecx,0x7
  400b00:	0f 84 b2 03 00 00    	je     400eb8 <tmetrics_hamming+0x4a8>
  400b06:	0f b7 5a 0e          	movzx  ebx,WORD PTR [rdx+0xe]
  400b0a:	45 31 c0             	xor    r8d,r8d
  400b0d:	66 39 5e 0e          	cmp    WORD PTR [rsi+0xe],bx
  400b11:	41 0f 95 c0          	setne  r8b
  400b15:	44 01 c0             	add    eax,r8d
  400b18:	83 f9 08             	cmp    ecx,0x8
  400b1b:	0f 84 17 04 00 00    	je     400f38 <tmetrics_hamming+0x528>
  400b21:	0f b7 5a 10          	movzx  ebx,WORD PTR [rdx+0x10]
  400b25:	45 31 c0             	xor    r8d,r8d
  400b28:	66 39 5e 10          	cmp    WORD PTR [rsi+0x10],bx
  400b2c:	41 0f 95 c0          	setne  r8b
  400b30:	44 01 c0             	add    eax,r8d
  400b33:	83 f9 09             	cmp    ecx,0x9
  400b36:	0f 84 0c 04 00 00    	je     400f48 <tmetrics_hamming+0x538>
  400b3c:	0f b7 5a 12          	movzx  ebx,WORD PTR [rdx+0x12]
  400b40:	45 31 c0             	xor    r8d,r8d
  400b43:	66 39 5e 12          	cmp    WORD PTR [rsi+0x12],bx
  400b47:	41 0f 95 c0          	setne  r8b
  400b4b:	44 01 c0             	add    eax,r8d
  400b4e:	83 f9 0a             	cmp    ecx,0xa
  400b51:	0f 84 01 04 00 00    	je     400f58 <tmetrics_hamming+0x548>
  400b57:	0f b7 5a 14          	movzx  ebx,WORD PTR [rdx+0x14]
  400b5b:	45 31 c0             	xor    r8d,r8d
  400b5e:	66 39 5e 14          	cmp    WORD PTR [rsi+0x14],bx
  400b62:	41 0f 95 c0          	setne  r8b
  400b66:	44 01 c0             	add    eax,r8d
  400b69:	83 f9 0b             	cmp    ecx,0xb
  400b6c:	0f 84 f6 03 00 00    	je     400f68 <tmetrics_hamming+0x558>
  400b72:	0f b7 5a 16          	movzx  ebx,WORD PTR [rdx+0x16]
  400b76:	45 31 c0             	xor    r8d,r8d
  400b79:	66 39 5e 16          	cmp    WORD PTR [rsi+0x16],bx
  400b7d:	41 0f 95 c0          	setne  r8b
  400b81:	44 01 c0             	add    eax,r8d
  400b84:	83 f9 0c             	cmp    ecx,0xc
  400b87:	0f 84 eb 03 00 00    	je     400f78 <tmetrics_hamming+0x568>
  400b8d:	0f b7 5a 18          	movzx  ebx,WORD PTR [rdx+0x18]
  400b91:	45 31 c0             	xor    r8d,r8d
  400b94:	66 39 5e 18          	cmp    WORD PTR [rsi+0x18],bx
  400b98:	41 0f 95 c0          	setne  r8b
  400b9c:	44 01 c0             	add    eax,r8d
  400b9f:	83 f9 0d             	cmp    ecx,0xd
  400ba2:	0f 84 e0 03 00 00    	je     400f88 <tmetrics_hamming+0x578>
  400ba8:	0f b7 5a 1a          	movzx  ebx,WORD PTR [rdx+0x1a]
  400bac:	45 31 c0             	xor    r8d,r8d
  400baf:	66 39 5e 1a          	cmp    WORD PTR [rsi+0x1a],bx
  400bb3:	41 0f 95 c0          	setne  r8b
  400bb7:	44 01 c0             	add    eax,r8d
  400bba:	83 f9 0e             	cmp    ecx,0xe
  400bbd:	0f 84 d5 03 00 00    	je     400f98 <tmetrics_hamming+0x588>
  400bc3:	0f b7 5a 1c          	movzx  ebx,WORD PTR [rdx+0x1c]
  400bc7:	45 31 c0             	xor    r8d,r8d
  400bca:	66 39 5e 1c          	cmp    WORD PTR [rsi+0x1c],bx
  400bce:	41 0f 95 c0          	setne  r8b
  400bd2:	44 01 c0             	add    eax,r8d
  400bd5:	83 f9 0f             	cmp    ecx,0xf
  400bd8:	0f 84 0a 03 00 00    	je     400ee8 <tmetrics_hamming+0x4d8>
  400bde:	0f b7 5a 1e          	movzx  ebx,WORD PTR [rdx+0x1e]
  400be2:	45 31 c0             	xor    r8d,r8d
  400be5:	66 39 5e 1e          	cmp    WORD PTR [rsi+0x1e],bx
  400be9:	41 0f 95 c0          	setne  r8b
  400bed:	44 01 c0             	add    eax,r8d
  400bf0:	83 f9 11             	cmp    ecx,0x11
  400bf3:	0f 85 cf 02 00 00    	jne    400ec8 <tmetrics_hamming+0x4b8>
  400bf9:	0f b7 5a 20          	movzx  ebx,WORD PTR [rdx+0x20]
  400bfd:	45 31 c0             	xor    r8d,r8d
  400c00:	41 b9 11 00 00 00    	mov    r9d,0x11
  400c06:	66 39 5e 20          	cmp    WORD PTR [rsi+0x20],bx
  400c0a:	41 0f 95 c0          	setne  r8b
  400c0e:	44 01 c0             	add    eax,r8d
  400c11:	39 cf                	cmp    edi,ecx
  400c13:	0f 84 52 02 00 00    	je     400e6b <tmetrics_hamming+0x45b>
  400c19:	41 89 fb             	mov    r11d,edi
  400c1c:	44 8d 67 ff          	lea    r12d,[rdi-0x1]
  400c20:	41 89 ca             	mov    r10d,ecx
  400c23:	41 29 cb             	sub    r11d,ecx
  400c26:	45 8d 43 f0          	lea    r8d,[r11-0x10]
  400c2a:	41 29 cc             	sub    r12d,ecx
  400c2d:	41 c1 e8 04          	shr    r8d,0x4
  400c31:	41 83 c0 01          	add    r8d,0x1
  400c35:	44 89 c3             	mov    ebx,r8d
  400c38:	c1 e3 04             	shl    ebx,0x4
  400c3b:	41 83 fc 0e          	cmp    r12d,0xe
  400c3f:	0f 86 a0 00 00 00    	jbe    400ce5 <tmetrics_hamming+0x2d5>
  400c45:	4b 8d 0c 12          	lea    rcx,[r10+r10*1]
  400c49:	c5 f9 ef c0          	vpxor  xmm0,xmm0,xmm0
  400c4d:	c5 fd 6f 1d 4b 1d 00 	vmovdqa ymm3,YMMWORD PTR [rip+0x1d4b]        # 4029a0 <_IO_stdin_used+0xa0>
  400c54:	00 
  400c55:	45 31 d2             	xor    r10d,r10d
  400c58:	45 31 e4             	xor    r12d,r12d
  400c5b:	4c 8d 2c 0e          	lea    r13,[rsi+rcx*1]
  400c5f:	48 01 d1             	add    rcx,rdx
  400c62:	c4 a1 7a 6f 0c 11    	vmovdqu xmm1,XMMWORD PTR [rcx+r10*1]
  400c68:	41 83 c4 01          	add    r12d,0x1
  400c6c:	c4 a3 75 38 4c 11 10 	vinserti128 ymm1,ymm1,XMMWORD PTR [rcx+r10*1+0x10],0x1
  400c73:	01 
  400c74:	c4 81 75 75 4c 15 00 	vpcmpeqw ymm1,ymm1,YMMWORD PTR [r13+r10*1+0x0]
  400c7b:	49 83 c2 20          	add    r10,0x20
  400c7f:	45 39 e0             	cmp    r8d,r12d
  400c82:	c5 f5 df cb          	vpandn ymm1,ymm1,ymm3
  400c86:	c4 e2 7d 33 d1       	vpmovzxwd ymm2,xmm1
  400c8b:	c4 e3 7d 39 c9 01    	vextracti128 xmm1,ymm1,0x1
  400c91:	c5 ed fe c0          	vpaddd ymm0,ymm2,ymm0
  400c95:	c4 e2 7d 33 c9       	vpmovzxwd ymm1,xmm1
  400c9a:	c5 f5 fe c0          	vpaddd ymm0,ymm1,ymm0
  400c9e:	77 c2                	ja     400c62 <tmetrics_hamming+0x252>
  400ca0:	c5 f1 ef c9          	vpxor  xmm1,xmm1,xmm1
  400ca4:	41 01 d9             	add    r9d,ebx
  400ca7:	c4 e3 7d 46 d1 21    	vperm2i128 ymm2,ymm0,ymm1,0x21
  400cad:	c5 fd fe c2          	vpaddd ymm0,ymm0,ymm2
  400cb1:	c4 e3 7d 46 d1 21    	vperm2i128 ymm2,ymm0,ymm1,0x21
  400cb7:	c4 e3 6d 0f d0 08    	vpalignr ymm2,ymm2,ymm0,0x8
  400cbd:	c5 fd fe c2          	vpaddd ymm0,ymm0,ymm2
  400cc1:	c4 e3 7d 46 c9 21    	vperm2i128 ymm1,ymm0,ymm1,0x21
  400cc7:	c4 e3 75 0f c8 04    	vpalignr ymm1,ymm1,ymm0,0x4
  400ccd:	c5 fd fe c1          	vpaddd ymm0,ymm0,ymm1
  400cd1:	c4 c1 79 7e c0       	vmovd  r8d,xmm0
  400cd6:	44 01 c0             	add    eax,r8d
  400cd9:	41 39 db             	cmp    r11d,ebx
  400cdc:	0f 84 b6 01 00 00    	je     400e98 <tmetrics_hamming+0x488>
  400ce2:	c5 f8 77             	vzeroupper 
  400ce5:	44 89 c9             	mov    ecx,r9d
  400ce8:	0f b7 1c 4a          	movzx  ebx,WORD PTR [rdx+rcx*2]
  400cec:	66 39 1c 4e          	cmp    WORD PTR [rsi+rcx*2],bx
  400cf0:	0f 95 c1             	setne  cl
  400cf3:	0f b6 c9             	movzx  ecx,cl
  400cf6:	01 c8                	add    eax,ecx
  400cf8:	41 8d 49 01          	lea    ecx,[r9+0x1]
  400cfc:	39 cf                	cmp    edi,ecx
  400cfe:	0f 86 67 01 00 00    	jbe    400e6b <tmetrics_hamming+0x45b>
  400d04:	0f b7 1c 4a          	movzx  ebx,WORD PTR [rdx+rcx*2]
  400d08:	66 39 1c 4e          	cmp    WORD PTR [rsi+rcx*2],bx
  400d0c:	0f 95 c1             	setne  cl
  400d0f:	0f b6 c9             	movzx  ecx,cl
  400d12:	01 c8                	add    eax,ecx
  400d14:	41 8d 49 02          	lea    ecx,[r9+0x2]
  400d18:	39 cf                	cmp    edi,ecx
  400d1a:	0f 86 4b 01 00 00    	jbe    400e6b <tmetrics_hamming+0x45b>
  400d20:	0f b7 1c 4a          	movzx  ebx,WORD PTR [rdx+rcx*2]
  400d24:	66 39 1c 4e          	cmp    WORD PTR [rsi+rcx*2],bx
  400d28:	0f 95 c1             	setne  cl
  400d2b:	0f b6 c9             	movzx  ecx,cl
  400d2e:	01 c8                	add    eax,ecx
  400d30:	41 8d 49 03          	lea    ecx,[r9+0x3]
  400d34:	39 cf                	cmp    edi,ecx
  400d36:	0f 86 2f 01 00 00    	jbe    400e6b <tmetrics_hamming+0x45b>
  400d3c:	0f b7 1c 4a          	movzx  ebx,WORD PTR [rdx+rcx*2]
  400d40:	66 39 1c 4e          	cmp    WORD PTR [rsi+rcx*2],bx
  400d44:	0f 95 c1             	setne  cl
  400d47:	0f b6 c9             	movzx  ecx,cl
  400d4a:	01 c8                	add    eax,ecx
  400d4c:	41 8d 49 04          	lea    ecx,[r9+0x4]
  400d50:	39 cf                	cmp    edi,ecx
  400d52:	0f 86 13 01 00 00    	jbe    400e6b <tmetrics_hamming+0x45b>
  400d58:	0f b7 1c 4a          	movzx  ebx,WORD PTR [rdx+rcx*2]
  400d5c:	66 39 1c 4e          	cmp    WORD PTR [rsi+rcx*2],bx
  400d60:	0f 95 c1             	setne  cl
  400d63:	0f b6 c9             	movzx  ecx,cl
  400d66:	01 c8                	add    eax,ecx
  400d68:	41 8d 49 05          	lea    ecx,[r9+0x5]
  400d6c:	39 cf                	cmp    edi,ecx
  400d6e:	0f 86 f7 00 00 00    	jbe    400e6b <tmetrics_hamming+0x45b>
  400d74:	0f b7 1c 4a          	movzx  ebx,WORD PTR [rdx+rcx*2]
  400d78:	66 39 1c 4e          	cmp    WORD PTR [rsi+rcx*2],bx
  400d7c:	0f 95 c1             	setne  cl
  400d7f:	0f b6 c9             	movzx  ecx,cl
  400d82:	01 c8                	add    eax,ecx
  400d84:	41 8d 49 06          	lea    ecx,[r9+0x6]
  400d88:	39 cf                	cmp    edi,ecx
  400d8a:	0f 86 db 00 00 00    	jbe    400e6b <tmetrics_hamming+0x45b>
  400d90:	0f b7 1c 4a          	movzx  ebx,WORD PTR [rdx+rcx*2]
  400d94:	66 39 1c 4e          	cmp    WORD PTR [rsi+rcx*2],bx
  400d98:	0f 95 c1             	setne  cl
  400d9b:	0f b6 c9             	movzx  ecx,cl
  400d9e:	01 c8                	add    eax,ecx
  400da0:	41 8d 49 07          	lea    ecx,[r9+0x7]
  400da4:	39 cf                	cmp    edi,ecx
  400da6:	0f 86 bf 00 00 00    	jbe    400e6b <tmetrics_hamming+0x45b>
  400dac:	0f b7 1c 4a          	movzx  ebx,WORD PTR [rdx+rcx*2]
  400db0:	66 39 1c 4e          	cmp    WORD PTR [rsi+rcx*2],bx
  400db4:	0f 95 c1             	setne  cl
  400db7:	0f b6 c9             	movzx  ecx,cl
  400dba:	01 c8                	add    eax,ecx
  400dbc:	41 8d 49 08          	lea    ecx,[r9+0x8]
  400dc0:	39 cf                	cmp    edi,ecx
  400dc2:	0f 86 a3 00 00 00    	jbe    400e6b <tmetrics_hamming+0x45b>
  400dc8:	0f b7 1c 4a          	movzx  ebx,WORD PTR [rdx+rcx*2]
  400dcc:	66 39 1c 4e          	cmp    WORD PTR [rsi+rcx*2],bx
  400dd0:	0f 95 c1             	setne  cl
  400dd3:	0f b6 c9             	movzx  ecx,cl
  400dd6:	01 c8                	add    eax,ecx
  400dd8:	41 8d 49 09          	lea    ecx,[r9+0x9]
  400ddc:	39 cf                	cmp    edi,ecx
  400dde:	0f 86 87 00 00 00    	jbe    400e6b <tmetrics_hamming+0x45b>
  400de4:	0f b7 1c 4a          	movzx  ebx,WORD PTR [rdx+rcx*2]
  400de8:	66 39 1c 4e          	cmp    WORD PTR [rsi+rcx*2],bx
  400dec:	0f 95 c1             	setne  cl
  400def:	0f b6 c9             	movzx  ecx,cl
  400df2:	01 c8                	add    eax,ecx
  400df4:	41 8d 49 0a          	lea    ecx,[r9+0xa]
  400df8:	39 cf                	cmp    edi,ecx
  400dfa:	76 6f                	jbe    400e6b <tmetrics_hamming+0x45b>
  400dfc:	0f b7 1c 4a          	movzx  ebx,WORD PTR [rdx+rcx*2]
  400e00:	66 39 1c 4e          	cmp    WORD PTR [rsi+rcx*2],bx
  400e04:	0f 95 c1             	setne  cl
  400e07:	0f b6 c9             	movzx  ecx,cl
  400e0a:	01 c8                	add    eax,ecx
  400e0c:	41 8d 49 0b          	lea    ecx,[r9+0xb]
  400e10:	39 cf                	cmp    edi,ecx
  400e12:	76 57                	jbe    400e6b <tmetrics_hamming+0x45b>
  400e14:	0f b7 1c 4a          	movzx  ebx,WORD PTR [rdx+rcx*2]
  400e18:	66 39 1c 4e          	cmp    WORD PTR [rsi+rcx*2],bx
  400e1c:	0f 95 c1             	setne  cl
  400e1f:	0f b6 c9             	movzx  ecx,cl
  400e22:	01 c8                	add    eax,ecx
  400e24:	41 8d 49 0c          	lea    ecx,[r9+0xc]
  400e28:	39 cf                	cmp    edi,ecx
  400e2a:	76 3f                	jbe    400e6b <tmetrics_hamming+0x45b>
  400e2c:	0f b7 1c 4a          	movzx  ebx,WORD PTR [rdx+rcx*2]
  400e30:	66 39 1c 4e          	cmp    WORD PTR [rsi+rcx*2],bx
  400e34:	0f 95 c1             	setne  cl
  400e37:	0f b6 c9             	movzx  ecx,cl
  400e3a:	01 c8                	add    eax,ecx
  400e3c:	41 8d 49 0d          	lea    ecx,[r9+0xd]
  400e40:	39 cf                	cmp    edi,ecx
  400e42:	76 27                	jbe    400e6b <tmetrics_hamming+0x45b>
  400e44:	0f b7 1c 4a          	movzx  ebx,WORD PTR [rdx+rcx*2]
  400e48:	66 39 1c 4e          	cmp    WORD PTR [rsi+rcx*2],bx
  400e4c:	0f 95 c1             	setne  cl
  400e4f:	0f b6 c9             	movzx  ecx,cl
  400e52:	01 c8                	add    eax,ecx
  400e54:	41 8d 49 0e          	lea    ecx,[r9+0xe]
  400e58:	39 cf                	cmp    edi,ecx
  400e5a:	76 0f                	jbe    400e6b <tmetrics_hamming+0x45b>
  400e5c:	0f b7 3c 4a          	movzx  edi,WORD PTR [rdx+rcx*2]
  400e60:	31 d2                	xor    edx,edx
  400e62:	66 39 3c 4e          	cmp    WORD PTR [rsi+rcx*2],di
  400e66:	0f 95 c2             	setne  dl
  400e69:	01 d0                	add    eax,edx
  400e6b:	5b                   	pop    rbx
  400e6c:	41 5a                	pop    r10
  400e6e:	41 5c                	pop    r12
  400e70:	41 5d                	pop    r13
  400e72:	5d                   	pop    rbp
  400e73:	49 8d 62 f8          	lea    rsp,[r10-0x8]
  400e77:	c3                   	ret    
  400e78:	0f 1f 84 00 00 00 00 	nop    DWORD PTR [rax+rax*1+0x0]
  400e7f:	00 
  400e80:	85 c9                	test   ecx,ecx
  400e82:	0f 85 c7 fb ff ff    	jne    400a4f <tmetrics_hamming+0x3f>
  400e88:	45 31 c9             	xor    r9d,r9d
  400e8b:	31 c0                	xor    eax,eax
  400e8d:	e9 87 fd ff ff       	jmp    400c19 <tmetrics_hamming+0x209>
  400e92:	66 0f 1f 44 00 00    	nop    WORD PTR [rax+rax*1+0x0]
  400e98:	c5 f8 77             	vzeroupper 
  400e9b:	5b                   	pop    rbx
  400e9c:	41 5a                	pop    r10
  400e9e:	41 5c                	pop    r12
  400ea0:	41 5d                	pop    r13
  400ea2:	5d                   	pop    rbp
  400ea3:	49 8d 62 f8          	lea    rsp,[r10-0x8]
  400ea7:	c3                   	ret    
  400ea8:	0f 1f 84 00 00 00 00 	nop    DWORD PTR [rax+rax*1+0x0]
  400eaf:	00 
  400eb0:	31 c0                	xor    eax,eax
  400eb2:	c3                   	ret    
  400eb3:	0f 1f 44 00 00       	nop    DWORD PTR [rax+rax*1+0x0]
  400eb8:	41 b9 07 00 00 00    	mov    r9d,0x7
  400ebe:	e9 4e fd ff ff       	jmp    400c11 <tmetrics_hamming+0x201>
  400ec3:	0f 1f 44 00 00       	nop    DWORD PTR [rax+rax*1+0x0]
  400ec8:	41 b9 10 00 00 00    	mov    r9d,0x10
  400ece:	e9 3e fd ff ff       	jmp    400c11 <tmetrics_hamming+0x201>
  400ed3:	0f 1f 44 00 00       	nop    DWORD PTR [rax+rax*1+0x0]
  400ed8:	41 b9 02 00 00 00    	mov    r9d,0x2
  400ede:	e9 2e fd ff ff       	jmp    400c11 <tmetrics_hamming+0x201>
  400ee3:	0f 1f 44 00 00       	nop    DWORD PTR [rax+rax*1+0x0]
  400ee8:	41 b9 0f 00 00 00    	mov    r9d,0xf
  400eee:	e9 1e fd ff ff       	jmp    400c11 <tmetrics_hamming+0x201>
  400ef3:	0f 1f 44 00 00       	nop    DWORD PTR [rax+rax*1+0x0]
  400ef8:	41 b9 04 00 00 00    	mov    r9d,0x4
  400efe:	e9 0e fd ff ff       	jmp    400c11 <tmetrics_hamming+0x201>
  400f03:	0f 1f 44 00 00       	nop    DWORD PTR [rax+rax*1+0x0]
  400f08:	41 b9 05 00 00 00    	mov    r9d,0x5
  400f0e:	e9 fe fc ff ff       	jmp    400c11 <tmetrics_hamming+0x201>
  400f13:	0f 1f 44 00 00       	nop    DWORD PTR [rax+rax*1+0x0]
  400f18:	41 b9 06 00 00 00    	mov    r9d,0x6
  400f1e:	e9 ee fc ff ff       	jmp    400c11 <tmetrics_hamming+0x201>
  400f23:	0f 1f 44 00 00       	nop    DWORD PTR [rax+rax*1+0x0]
  400f28:	41 b9 01 00 00 00    	mov    r9d,0x1
  400f2e:	e9 de fc ff ff       	jmp    400c11 <tmetrics_hamming+0x201>
  400f33:	0f 1f 44 00 00       	nop    DWORD PTR [rax+rax*1+0x0]
  400f38:	41 b9 08 00 00 00    	mov    r9d,0x8
  400f3e:	e9 ce fc ff ff       	jmp    400c11 <tmetrics_hamming+0x201>
  400f43:	0f 1f 44 00 00       	nop    DWORD PTR [rax+rax*1+0x0]
  400f48:	41 b9 09 00 00 00    	mov    r9d,0x9
  400f4e:	e9 be fc ff ff       	jmp    400c11 <tmetrics_hamming+0x201>
  400f53:	0f 1f 44 00 00       	nop    DWORD PTR [rax+rax*1+0x0]
  400f58:	41 b9 0a 00 00 00    	mov    r9d,0xa
  400f5e:	e9 ae fc ff ff       	jmp    400c11 <tmetrics_hamming+0x201>
  400f63:	0f 1f 44 00 00       	nop    DWORD PTR [rax+rax*1+0x0]
  400f68:	41 b9 0b 00 00 00    	mov    r9d,0xb
  400f6e:	e9 9e fc ff ff       	jmp    400c11 <tmetrics_hamming+0x201>
  400f73:	0f 1f 44 00 00       	nop    DWORD PTR [rax+rax*1+0x0]
  400f78:	41 b9 0c 00 00 00    	mov    r9d,0xc
  400f7e:	e9 8e fc ff ff       	jmp    400c11 <tmetrics_hamming+0x201>
  400f83:	0f 1f 44 00 00       	nop    DWORD PTR [rax+rax*1+0x0]
  400f88:	41 b9 0d 00 00 00    	mov    r9d,0xd
  400f8e:	e9 7e fc ff ff       	jmp    400c11 <tmetrics_hamming+0x201>
  400f93:	0f 1f 44 00 00       	nop    DWORD PTR [rax+rax*1+0x0]
  400f98:	41 b9 0e 00 00 00    	mov    r9d,0xe
  400f9e:	e9 6e fc ff ff       	jmp    400c11 <tmetrics_hamming+0x201>
  400fa3:	0f 1f 44 00 00       	nop    DWORD PTR [rax+rax*1+0x0]
  400fa8:	41 b9 03 00 00 00    	mov    r9d,0x3
  400fae:	e9 5e fc ff ff       	jmp    400c11 <tmetrics_hamming+0x201>
  400fb3:	0f 1f 00             	nop    DWORD PTR [rax]
  400fb6:	66 2e 0f 1f 84 00 00 	nop    WORD PTR cs:[rax+rax*1+0x0]
  400fbd:	00 00 00 

0000000000400fc0 <benchmark_hamming>:
  400fc0:	4c 8d 54 24 08       	lea    r10,[rsp+0x8]
  400fc5:	48 83 e4 e0          	and    rsp,0xffffffffffffffe0
  400fc9:	41 ff 72 f8          	push   QWORD PTR [r10-0x8]
  400fcd:	55                   	push   rbp
  400fce:	48 89 e5             	mov    rbp,rsp
  400fd1:	41 57                	push   r15
  400fd3:	41 56                	push   r14
  400fd5:	41 55                	push   r13
  400fd7:	41 54                	push   r12
  400fd9:	41 52                	push   r10
  400fdb:	53                   	push   rbx
  400fdc:	89 d3                	mov    ebx,edx
  400fde:	48 83 c4 80          	add    rsp,0xffffffffffffff80
  400fe2:	48 89 7d 90          	mov    QWORD PTR [rbp-0x70],rdi
  400fe6:	48 89 75 88          	mov    QWORD PTR [rbp-0x78],rsi
  400fea:	64 48 8b 04 25 28 00 	mov    rax,QWORD PTR fs:0x28
  400ff1:	00 00 
  400ff3:	48 89 45 c8          	mov    QWORD PTR [rbp-0x38],rax
  400ff7:	31 c0                	xor    eax,eax
  400ff9:	85 d2                	test   edx,edx
  400ffb:	89 4d 98             	mov    DWORD PTR [rbp-0x68],ecx
  400ffe:	0f 8e 88 06 00 00    	jle    40168c <benchmark_hamming+0x6cc>
  401004:	49 89 fb             	mov    r11,rdi
  401007:	41 83 e3 1f          	and    r11d,0x1f
  40100b:	49 d1 eb             	shr    r11,1
  40100e:	49 f7 db             	neg    r11
  401011:	41 83 e3 0f          	and    r11d,0xf
  401015:	41 39 d3             	cmp    r11d,edx
  401018:	44 0f 47 da          	cmova  r11d,edx
  40101c:	83 fa 12             	cmp    edx,0x12
  40101f:	0f 8f 3f 06 00 00    	jg     401664 <benchmark_hamming+0x6a4>
  401025:	41 89 d3             	mov    r11d,edx
  401028:	48 89 f0             	mov    rax,rsi
  40102b:	48 89 f9             	mov    rcx,rdi
  40102e:	89 de                	mov    esi,ebx
  401030:	89 df                	mov    edi,ebx
  401032:	31 d2                	xor    edx,edx
  401034:	44 29 de             	sub    esi,r11d
  401037:	66 0f 1f 84 00 00 00 	nop    WORD PTR [rax+rax*1+0x0]
  40103e:	00 00 
  401040:	44 0f b7 10          	movzx  r10d,WORD PTR [rax]
  401044:	45 31 c0             	xor    r8d,r8d
  401047:	66 44 39 11          	cmp    WORD PTR [rcx],r10w
  40104b:	41 0f 95 c0          	setne  r8b
  40104f:	83 ef 01             	sub    edi,0x1
  401052:	48 83 c1 02          	add    rcx,0x2
  401056:	44 01 c2             	add    edx,r8d
  401059:	48 83 c0 02          	add    rax,0x2
  40105d:	39 f7                	cmp    edi,esi
  40105f:	75 df                	jne    401040 <benchmark_hamming+0x80>
  401061:	44 39 db             	cmp    ebx,r11d
  401064:	0f 84 4e 02 00 00    	je     4012b8 <benchmark_hamming+0x2f8>
  40106a:	41 89 da             	mov    r10d,ebx
  40106d:	44 8d 43 ff          	lea    r8d,[rbx-0x1]
  401071:	45 89 dc             	mov    r12d,r11d
  401074:	45 29 da             	sub    r10d,r11d
  401077:	41 8d 7a f0          	lea    edi,[r10-0x10]
  40107b:	45 29 d8             	sub    r8d,r11d
  40107e:	c1 ef 04             	shr    edi,0x4
  401081:	83 c7 01             	add    edi,0x1
  401084:	41 89 f9             	mov    r9d,edi
  401087:	41 c1 e1 04          	shl    r9d,0x4
  40108b:	41 83 f8 0e          	cmp    r8d,0xe
  40108f:	0f 86 af 00 00 00    	jbe    401144 <benchmark_hamming+0x184>
  401095:	4c 8b 5d 90          	mov    r11,QWORD PTR [rbp-0x70]
  401099:	4f 8d 04 24          	lea    r8,[r12+r12*1]
  40109d:	c5 fd 6f 1d fb 18 00 	vmovdqa ymm3,YMMWORD PTR [rip+0x18fb]        # 4029a0 <_IO_stdin_used+0xa0>
  4010a4:	00 
  4010a5:	c5 f9 ef c0          	vpxor  xmm0,xmm0,xmm0
  4010a9:	45 31 e4             	xor    r12d,r12d
  4010ac:	4f 8d 2c 03          	lea    r13,[r11+r8*1]
  4010b0:	4c 03 45 88          	add    r8,QWORD PTR [rbp-0x78]
  4010b4:	45 31 db             	xor    r11d,r11d
  4010b7:	c4 81 7a 6f 0c 18    	vmovdqu xmm1,XMMWORD PTR [r8+r11*1]
  4010bd:	41 83 c4 01          	add    r12d,0x1
  4010c1:	c4 83 75 38 4c 18 10 	vinserti128 ymm1,ymm1,XMMWORD PTR [r8+r11*1+0x10],0x1
  4010c8:	01 
  4010c9:	c4 81 75 75 4c 1d 00 	vpcmpeqw ymm1,ymm1,YMMWORD PTR [r13+r11*1+0x0]
  4010d0:	49 83 c3 20          	add    r11,0x20
  4010d4:	41 39 fc             	cmp    r12d,edi
  4010d7:	c5 f5 df cb          	vpandn ymm1,ymm1,ymm3
  4010db:	c4 e2 7d 23 d1       	vpmovsxwd ymm2,xmm1
  4010e0:	c4 e3 7d 39 c9 01    	vextracti128 xmm1,ymm1,0x1
  4010e6:	c5 ed fe c0          	vpaddd ymm0,ymm2,ymm0
  4010ea:	c4 e2 7d 23 c9       	vpmovsxwd ymm1,xmm1
  4010ef:	c5 f5 fe c0          	vpaddd ymm0,ymm1,ymm0
  4010f3:	72 c2                	jb     4010b7 <benchmark_hamming+0xf7>
  4010f5:	c5 f1 ef c9          	vpxor  xmm1,xmm1,xmm1
  4010f9:	44 29 ce             	sub    esi,r9d
  4010fc:	c4 e3 7d 46 d1 21    	vperm2i128 ymm2,ymm0,ymm1,0x21
  401102:	c5 fd fe c2          	vpaddd ymm0,ymm0,ymm2
  401106:	c4 e3 7d 46 d1 21    	vperm2i128 ymm2,ymm0,ymm1,0x21
  40110c:	c4 e3 6d 0f d0 08    	vpalignr ymm2,ymm2,ymm0,0x8
  401112:	c5 fd fe c2          	vpaddd ymm0,ymm0,ymm2
  401116:	c4 e3 7d 46 c9 21    	vperm2i128 ymm1,ymm0,ymm1,0x21
  40111c:	c4 e3 75 0f c8 04    	vpalignr ymm1,ymm1,ymm0,0x4
  401122:	c5 fd fe c1          	vpaddd ymm0,ymm0,ymm1
  401126:	c5 f9 7e c7          	vmovd  edi,xmm0
  40112a:	01 fa                	add    edx,edi
  40112c:	44 89 cf             	mov    edi,r9d
  40112f:	48 01 ff             	add    rdi,rdi
  401132:	48 01 f9             	add    rcx,rdi
  401135:	48 01 f8             	add    rax,rdi
  401138:	45 39 ca             	cmp    r10d,r9d
  40113b:	0f 84 52 05 00 00    	je     401693 <benchmark_hamming+0x6d3>
  401141:	c5 f8 77             	vzeroupper 
  401144:	0f b7 38             	movzx  edi,WORD PTR [rax]
  401147:	66 39 39             	cmp    WORD PTR [rcx],di
  40114a:	40 0f 95 c7          	setne  dil
  40114e:	40 0f b6 ff          	movzx  edi,dil
  401152:	01 fa                	add    edx,edi
  401154:	83 fe 01             	cmp    esi,0x1
  401157:	0f 84 5b 01 00 00    	je     4012b8 <benchmark_hamming+0x2f8>
  40115d:	0f b7 78 02          	movzx  edi,WORD PTR [rax+0x2]
  401161:	66 39 79 02          	cmp    WORD PTR [rcx+0x2],di
  401165:	40 0f 95 c7          	setne  dil
  401169:	40 0f b6 ff          	movzx  edi,dil
  40116d:	01 fa                	add    edx,edi
  40116f:	83 fe 02             	cmp    esi,0x2
  401172:	0f 84 40 01 00 00    	je     4012b8 <benchmark_hamming+0x2f8>
  401178:	0f b7 78 04          	movzx  edi,WORD PTR [rax+0x4]
  40117c:	66 39 79 04          	cmp    WORD PTR [rcx+0x4],di
  401180:	40 0f 95 c7          	setne  dil
  401184:	40 0f b6 ff          	movzx  edi,dil
  401188:	01 fa                	add    edx,edi
  40118a:	83 fe 03             	cmp    esi,0x3
  40118d:	0f 84 25 01 00 00    	je     4012b8 <benchmark_hamming+0x2f8>
  401193:	0f b7 78 06          	movzx  edi,WORD PTR [rax+0x6]
  401197:	66 39 79 06          	cmp    WORD PTR [rcx+0x6],di
  40119b:	40 0f 95 c7          	setne  dil
  40119f:	40 0f b6 ff          	movzx  edi,dil
  4011a3:	01 fa                	add    edx,edi
  4011a5:	83 fe 04             	cmp    esi,0x4
  4011a8:	0f 84 0a 01 00 00    	je     4012b8 <benchmark_hamming+0x2f8>
  4011ae:	0f b7 78 08          	movzx  edi,WORD PTR [rax+0x8]
  4011b2:	66 39 79 08          	cmp    WORD PTR [rcx+0x8],di
  4011b6:	40 0f 95 c7          	setne  dil
  4011ba:	40 0f b6 ff          	movzx  edi,dil
  4011be:	01 fa                	add    edx,edi
  4011c0:	83 fe 05             	cmp    esi,0x5
  4011c3:	0f 84 ef 00 00 00    	je     4012b8 <benchmark_hamming+0x2f8>
  4011c9:	0f b7 78 0a          	movzx  edi,WORD PTR [rax+0xa]
  4011cd:	66 39 79 0a          	cmp    WORD PTR [rcx+0xa],di
  4011d1:	40 0f 95 c7          	setne  dil
  4011d5:	40 0f b6 ff          	movzx  edi,dil
  4011d9:	01 fa                	add    edx,edi
  4011db:	83 fe 06             	cmp    esi,0x6
  4011de:	0f 84 d4 00 00 00    	je     4012b8 <benchmark_hamming+0x2f8>
  4011e4:	0f b7 78 0c          	movzx  edi,WORD PTR [rax+0xc]
  4011e8:	66 39 79 0c          	cmp    WORD PTR [rcx+0xc],di
  4011ec:	40 0f 95 c7          	setne  dil
  4011f0:	40 0f b6 ff          	movzx  edi,dil
  4011f4:	01 fa                	add    edx,edi
  4011f6:	83 fe 07             	cmp    esi,0x7
  4011f9:	0f 84 b9 00 00 00    	je     4012b8 <benchmark_hamming+0x2f8>
  4011ff:	0f b7 78 0e          	movzx  edi,WORD PTR [rax+0xe]
  401203:	66 39 79 0e          	cmp    WORD PTR [rcx+0xe],di
  401207:	40 0f 95 c7          	setne  dil
  40120b:	40 0f b6 ff          	movzx  edi,dil
  40120f:	01 fa                	add    edx,edi
  401211:	83 fe 08             	cmp    esi,0x8
  401214:	0f 84 9e 00 00 00    	je     4012b8 <benchmark_hamming+0x2f8>
  40121a:	0f b7 78 10          	movzx  edi,WORD PTR [rax+0x10]
  40121e:	66 39 79 10          	cmp    WORD PTR [rcx+0x10],di
  401222:	40 0f 95 c7          	setne  dil
  401226:	40 0f b6 ff          	movzx  edi,dil
  40122a:	01 fa                	add    edx,edi
  40122c:	83 fe 09             	cmp    esi,0x9
  40122f:	0f 84 83 00 00 00    	je     4012b8 <benchmark_hamming+0x2f8>
  401235:	0f b7 78 12          	movzx  edi,WORD PTR [rax+0x12]
  401239:	66 39 79 12          	cmp    WORD PTR [rcx+0x12],di
  40123d:	40 0f 95 c7          	setne  dil
  401241:	40 0f b6 ff          	movzx  edi,dil
  401245:	01 fa                	add    edx,edi
  401247:	83 fe 0a             	cmp    esi,0xa
  40124a:	74 6c                	je     4012b8 <benchmark_hamming+0x2f8>
  40124c:	0f b7 78 14          	movzx  edi,WORD PTR [rax+0x14]
  401250:	66 39 79 14          	cmp    WORD PTR [rcx+0x14],di
  401254:	40 0f 95 c7          	setne  dil
  401258:	40 0f b6 ff          	movzx  edi,dil
  40125c:	01 fa                	add    edx,edi
  40125e:	83 fe 0b             	cmp    esi,0xb
  401261:	74 55                	je     4012b8 <benchmark_hamming+0x2f8>
  401263:	0f b7 78 16          	movzx  edi,WORD PTR [rax+0x16]
  401267:	66 39 79 16          	cmp    WORD PTR [rcx+0x16],di
  40126b:	40 0f 95 c7          	setne  dil
  40126f:	40 0f b6 ff          	movzx  edi,dil
  401273:	01 fa                	add    edx,edi
  401275:	83 fe 0c             	cmp    esi,0xc
  401278:	74 3e                	je     4012b8 <benchmark_hamming+0x2f8>
  40127a:	0f b7 78 18          	movzx  edi,WORD PTR [rax+0x18]
  40127e:	66 39 79 18          	cmp    WORD PTR [rcx+0x18],di
  401282:	40 0f 95 c7          	setne  dil
  401286:	40 0f b6 ff          	movzx  edi,dil
  40128a:	01 fa                	add    edx,edi
  40128c:	83 fe 0d             	cmp    esi,0xd
  40128f:	74 27                	je     4012b8 <benchmark_hamming+0x2f8>
  401291:	0f b7 78 1a          	movzx  edi,WORD PTR [rax+0x1a]
  401295:	66 39 79 1a          	cmp    WORD PTR [rcx+0x1a],di
  401299:	40 0f 95 c7          	setne  dil
  40129d:	40 0f b6 ff          	movzx  edi,dil
  4012a1:	01 fa                	add    edx,edi
  4012a3:	83 fe 0e             	cmp    esi,0xe
  4012a6:	74 10                	je     4012b8 <benchmark_hamming+0x2f8>
  4012a8:	0f b7 40 1c          	movzx  eax,WORD PTR [rax+0x1c]
  4012ac:	66 39 41 1c          	cmp    WORD PTR [rcx+0x1c],ax
  4012b0:	0f 95 c0             	setne  al
  4012b3:	0f b6 c0             	movzx  eax,al
  4012b6:	01 c2                	add    edx,eax
  4012b8:	31 c0                	xor    eax,eax
  4012ba:	be 04 29 40 00       	mov    esi,0x402904
  4012bf:	bf 01 00 00 00       	mov    edi,0x1
  4012c4:	e8 d7 f2 ff ff       	call   4005a0 <__printf_chk@plt>
  4012c9:	44 8b 45 98          	mov    r8d,DWORD PTR [rbp-0x68]
  4012cd:	45 85 c0             	test   r8d,r8d
  4012d0:	0f 8e ae 03 00 00    	jle    401684 <benchmark_hamming+0x6c4>
  4012d6:	48 8b 75 90          	mov    rsi,QWORD PTR [rbp-0x70]
  4012da:	41 89 dd             	mov    r13d,ebx
  4012dd:	48 89 f0             	mov    rax,rsi
  4012e0:	83 e0 1f             	and    eax,0x1f
  4012e3:	48 d1 e8             	shr    rax,1
  4012e6:	48 f7 d8             	neg    rax
  4012e9:	83 e0 0f             	and    eax,0xf
  4012ec:	39 d8                	cmp    eax,ebx
  4012ee:	0f 47 c3             	cmova  eax,ebx
  4012f1:	83 fb 12             	cmp    ebx,0x12
  4012f4:	0f 46 c3             	cmovbe eax,ebx
  4012f7:	45 31 e4             	xor    r12d,r12d
  4012fa:	45 31 f6             	xor    r14d,r14d
  4012fd:	41 29 c5             	sub    r13d,eax
  401300:	89 c1                	mov    ecx,eax
  401302:	89 45 9c             	mov    DWORD PTR [rbp-0x64],eax
  401305:	41 8d 45 f0          	lea    eax,[r13-0x10]
  401309:	45 31 ff             	xor    r15d,r15d
  40130c:	c1 e8 04             	shr    eax,0x4
  40130f:	83 c0 01             	add    eax,0x1
  401312:	89 85 6c ff ff ff    	mov    DWORD PTR [rbp-0x94],eax
  401318:	c1 e0 04             	shl    eax,0x4
  40131b:	89 c2                	mov    edx,eax
  40131d:	89 45 80             	mov    DWORD PTR [rbp-0x80],eax
  401320:	8d 43 ff             	lea    eax,[rbx-0x1]
  401323:	29 c8                	sub    eax,ecx
  401325:	89 45 84             	mov    DWORD PTR [rbp-0x7c],eax
  401328:	89 c8                	mov    eax,ecx
  40132a:	48 89 f1             	mov    rcx,rsi
  40132d:	48 01 c0             	add    rax,rax
  401330:	48 01 c1             	add    rcx,rax
  401333:	48 03 45 88          	add    rax,QWORD PTR [rbp-0x78]
  401337:	48 89 8d 60 ff ff ff 	mov    QWORD PTR [rbp-0xa0],rcx
  40133e:	48 89 85 70 ff ff ff 	mov    QWORD PTR [rbp-0x90],rax
  401345:	89 d0                	mov    eax,edx
  401347:	48 01 c0             	add    rax,rax
  40134a:	48 89 85 78 ff ff ff 	mov    QWORD PTR [rbp-0x88],rax
  401351:	0f 1f 80 00 00 00 00 	nop    DWORD PTR [rax+0x0]
  401358:	48 8d 75 a0          	lea    rsi,[rbp-0x60]
  40135c:	bf 01 00 00 00       	mov    edi,0x1
  401361:	e8 fa f1 ff ff       	call   400560 <clock_gettime@plt>
  401366:	85 db                	test   ebx,ebx
  401368:	0f 8e f2 02 00 00    	jle    401660 <benchmark_hamming+0x6a0>
  40136e:	8b 7d 9c             	mov    edi,DWORD PTR [rbp-0x64]
  401371:	31 c0                	xor    eax,eax
  401373:	89 de                	mov    esi,ebx
  401375:	48 8b 55 88          	mov    rdx,QWORD PTR [rbp-0x78]
  401379:	48 8b 4d 90          	mov    rcx,QWORD PTR [rbp-0x70]
  40137d:	85 ff                	test   edi,edi
  40137f:	74 33                	je     4013b4 <benchmark_hamming+0x3f4>
  401381:	0f 1f 80 00 00 00 00 	nop    DWORD PTR [rax+0x0]
  401388:	0f b7 3a             	movzx  edi,WORD PTR [rdx]
  40138b:	66 39 39             	cmp    WORD PTR [rcx],di
  40138e:	40 0f 95 c7          	setne  dil
  401392:	83 ee 01             	sub    esi,0x1
  401395:	48 83 c1 02          	add    rcx,0x2
  401399:	40 0f b6 ff          	movzx  edi,dil
  40139d:	48 83 c2 02          	add    rdx,0x2
  4013a1:	01 f8                	add    eax,edi
  4013a3:	44 39 ee             	cmp    esi,r13d
  4013a6:	75 e0                	jne    401388 <benchmark_hamming+0x3c8>
  4013a8:	3b 5d 9c             	cmp    ebx,DWORD PTR [rbp-0x64]
  4013ab:	0f 84 33 02 00 00    	je     4015e4 <benchmark_hamming+0x624>
  4013b1:	44 89 ee             	mov    esi,r13d
  4013b4:	83 7d 84 0e          	cmp    DWORD PTR [rbp-0x7c],0xe
  4013b8:	0f 86 b2 00 00 00    	jbe    401470 <benchmark_hamming+0x4b0>
  4013be:	c5 f9 ef c0          	vpxor  xmm0,xmm0,xmm0
  4013c2:	4c 8b 85 70 ff ff ff 	mov    r8,QWORD PTR [rbp-0x90]
  4013c9:	4c 8b 95 60 ff ff ff 	mov    r10,QWORD PTR [rbp-0xa0]
  4013d0:	31 ff                	xor    edi,edi
  4013d2:	45 31 c9             	xor    r9d,r9d
  4013d5:	c4 c1 7a 6f 0c 38    	vmovdqu xmm1,XMMWORD PTR [r8+rdi*1]
  4013db:	41 83 c1 01          	add    r9d,0x1
  4013df:	c4 c3 75 38 4c 38 10 	vinserti128 ymm1,ymm1,XMMWORD PTR [r8+rdi*1+0x10],0x1
  4013e6:	01 
  4013e7:	c4 c1 75 75 0c 3a    	vpcmpeqw ymm1,ymm1,YMMWORD PTR [r10+rdi*1]
  4013ed:	48 83 c7 20          	add    rdi,0x20
  4013f1:	44 39 8d 6c ff ff ff 	cmp    DWORD PTR [rbp-0x94],r9d
  4013f8:	c5 f5 df 0d a0 15 00 	vpandn ymm1,ymm1,YMMWORD PTR [rip+0x15a0]        # 4029a0 <_IO_stdin_used+0xa0>
  4013ff:	00 
  401400:	c4 e2 7d 23 d1       	vpmovsxwd ymm2,xmm1
  401405:	c4 e3 7d 39 c9 01    	vextracti128 xmm1,ymm1,0x1
  40140b:	c5 ed fe c0          	vpaddd ymm0,ymm2,ymm0
  40140f:	c4 e2 7d 23 c9       	vpmovsxwd ymm1,xmm1
  401414:	c5 f5 fe c0          	vpaddd ymm0,ymm1,ymm0
  401418:	77 bb                	ja     4013d5 <benchmark_hamming+0x415>
  40141a:	c5 f1 ef c9          	vpxor  xmm1,xmm1,xmm1
  40141e:	c4 e3 7d 46 d1 21    	vperm2i128 ymm2,ymm0,ymm1,0x21
  401424:	c5 fd fe c2          	vpaddd ymm0,ymm0,ymm2
  401428:	c4 e3 7d 46 d1 21    	vperm2i128 ymm2,ymm0,ymm1,0x21
  40142e:	c4 e3 6d 0f d0 08    	vpalignr ymm2,ymm2,ymm0,0x8
  401434:	c5 fd fe c2          	vpaddd ymm0,ymm0,ymm2
  401438:	c4 e3 7d 46 c9 21    	vperm2i128 ymm1,ymm0,ymm1,0x21
  40143e:	c4 e3 75 0f c8 04    	vpalignr ymm1,ymm1,ymm0,0x4
  401444:	c5 fd fe c1          	vpaddd ymm0,ymm0,ymm1
  401448:	c5 f9 7e c7          	vmovd  edi,xmm0
  40144c:	01 f8                	add    eax,edi
  40144e:	48 8b bd 78 ff ff ff 	mov    rdi,QWORD PTR [rbp-0x88]
  401455:	48 01 f9             	add    rcx,rdi
  401458:	48 01 fa             	add    rdx,rdi
  40145b:	8b 7d 80             	mov    edi,DWORD PTR [rbp-0x80]
  40145e:	29 fe                	sub    esi,edi
  401460:	44 39 ef             	cmp    edi,r13d
  401463:	0f 84 13 02 00 00    	je     40167c <benchmark_hamming+0x6bc>
  401469:	c5 f8 77             	vzeroupper 
  40146c:	0f 1f 40 00          	nop    DWORD PTR [rax+0x0]
  401470:	0f b7 39             	movzx  edi,WORD PTR [rcx]
  401473:	66 39 3a             	cmp    WORD PTR [rdx],di
  401476:	40 0f 95 c7          	setne  dil
  40147a:	40 0f b6 ff          	movzx  edi,dil
  40147e:	01 f8                	add    eax,edi
  401480:	83 fe 01             	cmp    esi,0x1
  401483:	0f 84 5b 01 00 00    	je     4015e4 <benchmark_hamming+0x624>
  401489:	0f b7 79 02          	movzx  edi,WORD PTR [rcx+0x2]
  40148d:	66 39 7a 02          	cmp    WORD PTR [rdx+0x2],di
  401491:	40 0f 95 c7          	setne  dil
  401495:	40 0f b6 ff          	movzx  edi,dil
  401499:	01 f8                	add    eax,edi
  40149b:	83 fe 02             	cmp    esi,0x2
  40149e:	0f 84 40 01 00 00    	je     4015e4 <benchmark_hamming+0x624>
  4014a4:	0f b7 79 04          	movzx  edi,WORD PTR [rcx+0x4]
  4014a8:	66 39 7a 04          	cmp    WORD PTR [rdx+0x4],di
  4014ac:	40 0f 95 c7          	setne  dil
  4014b0:	40 0f b6 ff          	movzx  edi,dil
  4014b4:	01 f8                	add    eax,edi
  4014b6:	83 fe 03             	cmp    esi,0x3
  4014b9:	0f 84 25 01 00 00    	je     4015e4 <benchmark_hamming+0x624>
  4014bf:	0f b7 7a 06          	movzx  edi,WORD PTR [rdx+0x6]
  4014c3:	66 39 79 06          	cmp    WORD PTR [rcx+0x6],di
  4014c7:	40 0f 95 c7          	setne  dil
  4014cb:	40 0f b6 ff          	movzx  edi,dil
  4014cf:	01 f8                	add    eax,edi
  4014d1:	83 fe 04             	cmp    esi,0x4
  4014d4:	0f 84 0a 01 00 00    	je     4015e4 <benchmark_hamming+0x624>
  4014da:	0f b7 7a 08          	movzx  edi,WORD PTR [rdx+0x8]
  4014de:	66 39 79 08          	cmp    WORD PTR [rcx+0x8],di
  4014e2:	40 0f 95 c7          	setne  dil
  4014e6:	40 0f b6 ff          	movzx  edi,dil
  4014ea:	01 f8                	add    eax,edi
  4014ec:	83 fe 05             	cmp    esi,0x5
  4014ef:	0f 84 ef 00 00 00    	je     4015e4 <benchmark_hamming+0x624>
  4014f5:	0f b7 7a 0a          	movzx  edi,WORD PTR [rdx+0xa]
  4014f9:	66 39 79 0a          	cmp    WORD PTR [rcx+0xa],di
  4014fd:	40 0f 95 c7          	setne  dil
  401501:	40 0f b6 ff          	movzx  edi,dil
  401505:	01 f8                	add    eax,edi
  401507:	83 fe 06             	cmp    esi,0x6
  40150a:	0f 84 d4 00 00 00    	je     4015e4 <benchmark_hamming+0x624>
  401510:	0f b7 7a 0c          	movzx  edi,WORD PTR [rdx+0xc]
  401514:	66 39 79 0c          	cmp    WORD PTR [rcx+0xc],di
  401518:	40 0f 95 c7          	setne  dil
  40151c:	40 0f b6 ff          	movzx  edi,dil
  401520:	01 f8                	add    eax,edi
  401522:	83 fe 07             	cmp    esi,0x7
  401525:	0f 84 b9 00 00 00    	je     4015e4 <benchmark_hamming+0x624>
  40152b:	0f b7 7a 0e          	movzx  edi,WORD PTR [rdx+0xe]
  40152f:	66 39 79 0e          	cmp    WORD PTR [rcx+0xe],di
  401533:	40 0f 95 c7          	setne  dil
  401537:	40 0f b6 ff          	movzx  edi,dil
  40153b:	01 f8                	add    eax,edi
  40153d:	83 fe 08             	cmp    esi,0x8
  401540:	0f 84 9e 00 00 00    	je     4015e4 <benchmark_hamming+0x624>
  401546:	0f b7 7a 10          	movzx  edi,WORD PTR [rdx+0x10]
  40154a:	66 39 79 10          	cmp    WORD PTR [rcx+0x10],di
  40154e:	40 0f 95 c7          	setne  dil
  401552:	40 0f b6 ff          	movzx  edi,dil
  401556:	01 f8                	add    eax,edi
  401558:	83 fe 09             	cmp    esi,0x9
  40155b:	0f 84 83 00 00 00    	je     4015e4 <benchmark_hamming+0x624>
  401561:	0f b7 7a 12          	movzx  edi,WORD PTR [rdx+0x12]
  401565:	66 39 79 12          	cmp    WORD PTR [rcx+0x12],di
  401569:	40 0f 95 c7          	setne  dil
  40156d:	40 0f b6 ff          	movzx  edi,dil
  401571:	01 f8                	add    eax,edi
  401573:	83 fe 0a             	cmp    esi,0xa
  401576:	74 6c                	je     4015e4 <benchmark_hamming+0x624>
  401578:	0f b7 7a 14          	movzx  edi,WORD PTR [rdx+0x14]
  40157c:	66 39 79 14          	cmp    WORD PTR [rcx+0x14],di
  401580:	40 0f 95 c7          	setne  dil
  401584:	40 0f b6 ff          	movzx  edi,dil
  401588:	01 f8                	add    eax,edi
  40158a:	83 fe 0b             	cmp    esi,0xb
  40158d:	74 55                	je     4015e4 <benchmark_hamming+0x624>
  40158f:	0f b7 7a 16          	movzx  edi,WORD PTR [rdx+0x16]
  401593:	66 39 79 16          	cmp    WORD PTR [rcx+0x16],di
  401597:	40 0f 95 c7          	setne  dil
  40159b:	40 0f b6 ff          	movzx  edi,dil
  40159f:	01 f8                	add    eax,edi
  4015a1:	83 fe 0c             	cmp    esi,0xc
  4015a4:	74 3e                	je     4015e4 <benchmark_hamming+0x624>
  4015a6:	0f b7 7a 18          	movzx  edi,WORD PTR [rdx+0x18]
  4015aa:	66 39 79 18          	cmp    WORD PTR [rcx+0x18],di
  4015ae:	40 0f 95 c7          	setne  dil
  4015b2:	40 0f b6 ff          	movzx  edi,dil
  4015b6:	01 f8                	add    eax,edi
  4015b8:	83 fe 0d             	cmp    esi,0xd
  4015bb:	74 27                	je     4015e4 <benchmark_hamming+0x624>
  4015bd:	0f b7 7a 1a          	movzx  edi,WORD PTR [rdx+0x1a]
  4015c1:	66 39 79 1a          	cmp    WORD PTR [rcx+0x1a],di
  4015c5:	40 0f 95 c7          	setne  dil
  4015c9:	40 0f b6 ff          	movzx  edi,dil
  4015cd:	01 f8                	add    eax,edi
  4015cf:	83 fe 0e             	cmp    esi,0xe
  4015d2:	74 10                	je     4015e4 <benchmark_hamming+0x624>
  4015d4:	0f b7 52 1c          	movzx  edx,WORD PTR [rdx+0x1c]
  4015d8:	66 39 51 1c          	cmp    WORD PTR [rcx+0x1c],dx
  4015dc:	0f 95 c2             	setne  dl
  4015df:	0f b6 d2             	movzx  edx,dl
  4015e2:	01 d0                	add    eax,edx
  4015e4:	48 98                	cdqe   
  4015e6:	48 8d 75 b0          	lea    rsi,[rbp-0x50]
  4015ea:	bf 01 00 00 00       	mov    edi,0x1
  4015ef:	49 01 c7             	add    r15,rax
  4015f2:	41 83 c4 01          	add    r12d,0x1
  4015f6:	e8 65 ef ff ff       	call   400560 <clock_gettime@plt>
  4015fb:	48 8b 45 b0          	mov    rax,QWORD PTR [rbp-0x50]
  4015ff:	48 2b 45 a0          	sub    rax,QWORD PTR [rbp-0x60]
  401603:	48 69 c0 00 ca 9a 3b 	imul   rax,rax,0x3b9aca00
  40160a:	48 03 45 b8          	add    rax,QWORD PTR [rbp-0x48]
  40160e:	48 2b 45 a8          	sub    rax,QWORD PTR [rbp-0x58]
  401612:	49 01 c6             	add    r14,rax
  401615:	44 39 65 98          	cmp    DWORD PTR [rbp-0x68],r12d
  401619:	0f 85 39 fd ff ff    	jne    401358 <benchmark_hamming+0x398>
  40161f:	31 c0                	xor    eax,eax
  401621:	4c 89 fa             	mov    rdx,r15
  401624:	be 07 29 40 00       	mov    esi,0x402907
  401629:	bf 01 00 00 00       	mov    edi,0x1
  40162e:	e8 6d ef ff ff       	call   4005a0 <__printf_chk@plt>
  401633:	48 8b 5d c8          	mov    rbx,QWORD PTR [rbp-0x38]
  401637:	64 48 33 1c 25 28 00 	xor    rbx,QWORD PTR fs:0x28
  40163e:	00 00 
  401640:	4c 89 f0             	mov    rax,r14
  401643:	75 56                	jne    40169b <benchmark_hamming+0x6db>
  401645:	48 83 ec 80          	sub    rsp,0xffffffffffffff80
  401649:	5b                   	pop    rbx
  40164a:	41 5a                	pop    r10
  40164c:	41 5c                	pop    r12
  40164e:	41 5d                	pop    r13
  401650:	41 5e                	pop    r14
  401652:	41 5f                	pop    r15
  401654:	5d                   	pop    rbp
  401655:	49 8d 62 f8          	lea    rsp,[r10-0x8]
  401659:	c3                   	ret    
  40165a:	66 0f 1f 44 00 00    	nop    WORD PTR [rax+rax*1+0x0]
  401660:	31 c0                	xor    eax,eax
  401662:	eb 82                	jmp    4015e6 <benchmark_hamming+0x626>
  401664:	45 85 db             	test   r11d,r11d
  401667:	48 89 f0             	mov    rax,rsi
  40166a:	48 89 f9             	mov    rcx,rdi
  40166d:	0f 85 bb f9 ff ff    	jne    40102e <benchmark_hamming+0x6e>
  401673:	89 d6                	mov    esi,edx
  401675:	31 d2                	xor    edx,edx
  401677:	e9 ee f9 ff ff       	jmp    40106a <benchmark_hamming+0xaa>
  40167c:	c5 f8 77             	vzeroupper 
  40167f:	e9 60 ff ff ff       	jmp    4015e4 <benchmark_hamming+0x624>
  401684:	45 31 f6             	xor    r14d,r14d
  401687:	45 31 ff             	xor    r15d,r15d
  40168a:	eb 93                	jmp    40161f <benchmark_hamming+0x65f>
  40168c:	31 d2                	xor    edx,edx
  40168e:	e9 25 fc ff ff       	jmp    4012b8 <benchmark_hamming+0x2f8>
  401693:	c5 f8 77             	vzeroupper 
  401696:	e9 1d fc ff ff       	jmp    4012b8 <benchmark_hamming+0x2f8>
  40169b:	e8 d0 ee ff ff       	call   400570 <__stack_chk_fail@plt>

00000000004016a0 <initialiseArray>:
  4016a0:	85 d2                	test   edx,edx
  4016a2:	0f 8e 07 04 00 00    	jle    401aaf <initialiseArray+0x40f>
  4016a8:	48 8d 46 20          	lea    rax,[rsi+0x20]
  4016ac:	48 39 c7             	cmp    rdi,rax
  4016af:	48 8d 47 20          	lea    rax,[rdi+0x20]
  4016b3:	0f 93 c1             	setae  cl
  4016b6:	48 39 c6             	cmp    rsi,rax
  4016b9:	0f 93 c0             	setae  al
  4016bc:	08 c1                	or     cl,al
  4016be:	0f 84 f4 03 00 00    	je     401ab8 <initialiseArray+0x418>
  4016c4:	83 fa 14             	cmp    edx,0x14
  4016c7:	0f 86 eb 03 00 00    	jbe    401ab8 <initialiseArray+0x418>
  4016cd:	48 89 f8             	mov    rax,rdi
  4016d0:	4c 8d 54 24 08       	lea    r10,[rsp+0x8]
  4016d5:	48 83 e4 e0          	and    rsp,0xffffffffffffffe0
  4016d9:	83 e0 1f             	and    eax,0x1f
  4016dc:	48 d1 e8             	shr    rax,1
  4016df:	41 ff 72 f8          	push   QWORD PTR [r10-0x8]
  4016e3:	55                   	push   rbp
  4016e4:	48 f7 d8             	neg    rax
  4016e7:	83 e0 0f             	and    eax,0xf
  4016ea:	48 89 e5             	mov    rbp,rsp
  4016ed:	41 54                	push   r12
  4016ef:	39 d0                	cmp    eax,edx
  4016f1:	41 52                	push   r10
  4016f3:	53                   	push   rbx
  4016f4:	0f 47 c2             	cmova  eax,edx
  4016f7:	31 c9                	xor    ecx,ecx
  4016f9:	85 c0                	test   eax,eax
  4016fb:	0f 84 b3 01 00 00    	je     4018b4 <initialiseArray+0x214>
  401701:	31 c9                	xor    ecx,ecx
  401703:	45 31 c0             	xor    r8d,r8d
  401706:	83 f8 01             	cmp    eax,0x1
  401709:	66 89 0f             	mov    WORD PTR [rdi],cx
  40170c:	66 44 89 06          	mov    WORD PTR [rsi],r8w
  401710:	0f 84 da 03 00 00    	je     401af0 <initialiseArray+0x450>
  401716:	bb 01 00 00 00       	mov    ebx,0x1
  40171b:	41 bc 01 00 00 00    	mov    r12d,0x1
  401721:	83 f8 02             	cmp    eax,0x2
  401724:	66 89 5f 02          	mov    WORD PTR [rdi+0x2],bx
  401728:	66 44 89 66 02       	mov    WORD PTR [rsi+0x2],r12w
  40172d:	0f 84 cd 03 00 00    	je     401b00 <initialiseArray+0x460>
  401733:	41 ba 02 00 00 00    	mov    r10d,0x2
  401739:	41 bb 02 00 00 00    	mov    r11d,0x2
  40173f:	83 f8 03             	cmp    eax,0x3
  401742:	66 44 89 57 04       	mov    WORD PTR [rdi+0x4],r10w
  401747:	66 44 89 5e 04       	mov    WORD PTR [rsi+0x4],r11w
  40174c:	0f 84 be 03 00 00    	je     401b10 <initialiseArray+0x470>
  401752:	41 b8 03 00 00 00    	mov    r8d,0x3
  401758:	41 b9 03 00 00 00    	mov    r9d,0x3
  40175e:	83 f8 04             	cmp    eax,0x4
  401761:	66 44 89 47 06       	mov    WORD PTR [rdi+0x6],r8w
  401766:	66 44 89 4e 06       	mov    WORD PTR [rsi+0x6],r9w
  40176b:	0f 84 af 03 00 00    	je     401b20 <initialiseArray+0x480>
  401771:	41 bc 04 00 00 00    	mov    r12d,0x4
  401777:	b9 04 00 00 00       	mov    ecx,0x4
  40177c:	83 f8 05             	cmp    eax,0x5
  40177f:	66 44 89 67 08       	mov    WORD PTR [rdi+0x8],r12w
  401784:	66 89 4e 08          	mov    WORD PTR [rsi+0x8],cx
  401788:	0f 84 a2 03 00 00    	je     401b30 <initialiseArray+0x490>
  40178e:	41 bb 05 00 00 00    	mov    r11d,0x5
  401794:	bb 05 00 00 00       	mov    ebx,0x5
  401799:	83 f8 06             	cmp    eax,0x6
  40179c:	66 44 89 5f 0a       	mov    WORD PTR [rdi+0xa],r11w
  4017a1:	66 89 5e 0a          	mov    WORD PTR [rsi+0xa],bx
  4017a5:	0f 84 95 03 00 00    	je     401b40 <initialiseArray+0x4a0>
  4017ab:	41 b9 06 00 00 00    	mov    r9d,0x6
  4017b1:	41 ba 06 00 00 00    	mov    r10d,0x6
  4017b7:	83 f8 07             	cmp    eax,0x7
  4017ba:	66 44 89 4f 0c       	mov    WORD PTR [rdi+0xc],r9w
  4017bf:	66 44 89 56 0c       	mov    WORD PTR [rsi+0xc],r10w
  4017c4:	0f 84 86 03 00 00    	je     401b50 <initialiseArray+0x4b0>
  4017ca:	b9 07 00 00 00       	mov    ecx,0x7
  4017cf:	41 b8 07 00 00 00    	mov    r8d,0x7
  4017d5:	83 f8 08             	cmp    eax,0x8
  4017d8:	66 89 4f 0e          	mov    WORD PTR [rdi+0xe],cx
  4017dc:	66 44 89 46 0e       	mov    WORD PTR [rsi+0xe],r8w
  4017e1:	0f 84 79 03 00 00    	je     401b60 <initialiseArray+0x4c0>
  4017e7:	bb 08 00 00 00       	mov    ebx,0x8
  4017ec:	41 bc 08 00 00 00    	mov    r12d,0x8
  4017f2:	83 f8 09             	cmp    eax,0x9
  4017f5:	66 89 5f 10          	mov    WORD PTR [rdi+0x10],bx
  4017f9:	66 44 89 66 10       	mov    WORD PTR [rsi+0x10],r12w
  4017fe:	0f 84 6c 03 00 00    	je     401b70 <initialiseArray+0x4d0>
  401804:	41 ba 09 00 00 00    	mov    r10d,0x9
  40180a:	41 bb 09 00 00 00    	mov    r11d,0x9
  401810:	83 f8 0a             	cmp    eax,0xa
  401813:	66 44 89 57 12       	mov    WORD PTR [rdi+0x12],r10w
  401818:	66 44 89 5e 12       	mov    WORD PTR [rsi+0x12],r11w
  40181d:	0f 84 5d 03 00 00    	je     401b80 <initialiseArray+0x4e0>
  401823:	41 b8 0a 00 00 00    	mov    r8d,0xa
  401829:	41 b9 0a 00 00 00    	mov    r9d,0xa
  40182f:	83 f8 0b             	cmp    eax,0xb
  401832:	66 44 89 47 14       	mov    WORD PTR [rdi+0x14],r8w
  401837:	66 44 89 4e 14       	mov    WORD PTR [rsi+0x14],r9w
  40183c:	0f 84 4e 03 00 00    	je     401b90 <initialiseArray+0x4f0>
  401842:	41 bc 0b 00 00 00    	mov    r12d,0xb
  401848:	b9 0b 00 00 00       	mov    ecx,0xb
  40184d:	83 f8 0c             	cmp    eax,0xc
  401850:	66 44 89 67 16       	mov    WORD PTR [rdi+0x16],r12w
  401855:	66 89 4e 16          	mov    WORD PTR [rsi+0x16],cx
  401859:	0f 84 41 03 00 00    	je     401ba0 <initialiseArray+0x500>
  40185f:	41 bb 0c 00 00 00    	mov    r11d,0xc
  401865:	bb 0c 00 00 00       	mov    ebx,0xc
  40186a:	83 f8 0d             	cmp    eax,0xd
  40186d:	66 44 89 5f 18       	mov    WORD PTR [rdi+0x18],r11w
  401872:	66 89 5e 18          	mov    WORD PTR [rsi+0x18],bx
  401876:	0f 84 34 03 00 00    	je     401bb0 <initialiseArray+0x510>
  40187c:	41 b9 0d 00 00 00    	mov    r9d,0xd
  401882:	41 ba 0d 00 00 00    	mov    r10d,0xd
  401888:	83 f8 0f             	cmp    eax,0xf
  40188b:	66 44 89 4f 1a       	mov    WORD PTR [rdi+0x1a],r9w
  401890:	66 44 89 56 1a       	mov    WORD PTR [rsi+0x1a],r10w
  401895:	0f 85 45 02 00 00    	jne    401ae0 <initialiseArray+0x440>
  40189b:	b9 0e 00 00 00       	mov    ecx,0xe
  4018a0:	41 b8 0e 00 00 00    	mov    r8d,0xe
  4018a6:	66 89 4f 1c          	mov    WORD PTR [rdi+0x1c],cx
  4018aa:	66 44 89 46 1c       	mov    WORD PTR [rsi+0x1c],r8w
  4018af:	b9 0f 00 00 00       	mov    ecx,0xf
  4018b4:	41 89 d3             	mov    r11d,edx
  4018b7:	44 8d 52 ff          	lea    r10d,[rdx-0x1]
  4018bb:	41 89 c1             	mov    r9d,eax
  4018be:	41 29 c3             	sub    r11d,eax
  4018c1:	45 8d 43 f0          	lea    r8d,[r11-0x10]
  4018c5:	41 29 c2             	sub    r10d,eax
  4018c8:	41 c1 e8 04          	shr    r8d,0x4
  4018cc:	41 83 c0 01          	add    r8d,0x1
  4018d0:	44 89 c3             	mov    ebx,r8d
  4018d3:	c1 e3 04             	shl    ebx,0x4
  4018d6:	41 83 fa 0e          	cmp    r10d,0xe
  4018da:	0f 86 84 00 00 00    	jbe    401964 <initialiseArray+0x2c4>
  4018e0:	4b 8d 04 09          	lea    rax,[r9+r9*1]
  4018e4:	89 4d cc             	mov    DWORD PTR [rbp-0x34],ecx
  4018e7:	c5 fd 6f 2d f1 10 00 	vmovdqa ymm5,YMMWORD PTR [rip+0x10f1]        # 4029e0 <_IO_stdin_used+0xe0>
  4018ee:	00 
  4018ef:	c4 e2 7d 58 45 cc    	vpbroadcastd ymm0,DWORD PTR [rbp-0x34]
  4018f5:	45 31 c9             	xor    r9d,r9d
  4018f8:	45 31 d2             	xor    r10d,r10d
  4018fb:	c5 fd 6f 25 fd 10 00 	vmovdqa ymm4,YMMWORD PTR [rip+0x10fd]        # 402a00 <_IO_stdin_used+0x100>
  401902:	00 
  401903:	4c 8d 24 07          	lea    r12,[rdi+rax*1]
  401907:	48 01 f0             	add    rax,rsi
  40190a:	c5 fd 6f 1d 0e 11 00 	vmovdqa ymm3,YMMWORD PTR [rip+0x110e]        # 402a20 <_IO_stdin_used+0x120>
  401911:	00 
  401912:	c5 fd fe 05 a6 10 00 	vpaddd ymm0,ymm0,YMMWORD PTR [rip+0x10a6]        # 4029c0 <_IO_stdin_used+0xc0>
  401919:	00 
  40191a:	c5 fd fe cc          	vpaddd ymm1,ymm0,ymm4
  40191e:	c5 e5 db d0          	vpand  ymm2,ymm3,ymm0
  401922:	41 83 c2 01          	add    r10d,0x1
  401926:	c5 e5 db c9          	vpand  ymm1,ymm3,ymm1
  40192a:	c5 fd fe c5          	vpaddd ymm0,ymm0,ymm5
  40192e:	c4 e2 6d 2b c9       	vpackusdw ymm1,ymm2,ymm1
  401933:	c4 e3 fd 00 c9 d8    	vpermq ymm1,ymm1,0xd8
  401939:	c4 81 7d 7f 0c 0c    	vmovdqa YMMWORD PTR [r12+r9*1],ymm1
  40193f:	c4 a3 7d 39 4c 08 10 	vextracti128 XMMWORD PTR [rax+r9*1+0x10],ymm1,0x1
  401946:	01 
  401947:	c4 a1 78 11 0c 08    	vmovups XMMWORD PTR [rax+r9*1],xmm1
  40194d:	49 83 c1 20          	add    r9,0x20
  401951:	45 39 c2             	cmp    r10d,r8d
  401954:	72 c4                	jb     40191a <initialiseArray+0x27a>
  401956:	01 d9                	add    ecx,ebx
  401958:	41 39 db             	cmp    r11d,ebx
  40195b:	0f 84 77 01 00 00    	je     401ad8 <initialiseArray+0x438>
  401961:	c5 f8 77             	vzeroupper 
  401964:	48 63 c1             	movsxd rax,ecx
  401967:	66 89 0c 47          	mov    WORD PTR [rdi+rax*2],cx
  40196b:	66 89 0c 46          	mov    WORD PTR [rsi+rax*2],cx
  40196f:	8d 41 01             	lea    eax,[rcx+0x1]
  401972:	39 c2                	cmp    edx,eax
  401974:	0f 8e 2b 01 00 00    	jle    401aa5 <initialiseArray+0x405>
  40197a:	4c 63 c0             	movsxd r8,eax
  40197d:	66 42 89 04 47       	mov    WORD PTR [rdi+r8*2],ax
  401982:	66 42 89 04 46       	mov    WORD PTR [rsi+r8*2],ax
  401987:	8d 41 02             	lea    eax,[rcx+0x2]
  40198a:	39 c2                	cmp    edx,eax
  40198c:	0f 8e 13 01 00 00    	jle    401aa5 <initialiseArray+0x405>
  401992:	4c 63 c0             	movsxd r8,eax
  401995:	66 42 89 04 47       	mov    WORD PTR [rdi+r8*2],ax
  40199a:	66 42 89 04 46       	mov    WORD PTR [rsi+r8*2],ax
  40199f:	8d 41 03             	lea    eax,[rcx+0x3]
  4019a2:	39 c2                	cmp    edx,eax
  4019a4:	0f 8e fb 00 00 00    	jle    401aa5 <initialiseArray+0x405>
  4019aa:	4c 63 c0             	movsxd r8,eax
  4019ad:	66 42 89 04 47       	mov    WORD PTR [rdi+r8*2],ax
  4019b2:	66 42 89 04 46       	mov    WORD PTR [rsi+r8*2],ax
  4019b7:	8d 41 04             	lea    eax,[rcx+0x4]
  4019ba:	39 c2                	cmp    edx,eax
  4019bc:	0f 8e e3 00 00 00    	jle    401aa5 <initialiseArray+0x405>
  4019c2:	4c 63 c0             	movsxd r8,eax
  4019c5:	66 42 89 04 47       	mov    WORD PTR [rdi+r8*2],ax
  4019ca:	66 42 89 04 46       	mov    WORD PTR [rsi+r8*2],ax
  4019cf:	8d 41 05             	lea    eax,[rcx+0x5]
  4019d2:	39 c2                	cmp    edx,eax
  4019d4:	0f 8e cb 00 00 00    	jle    401aa5 <initialiseArray+0x405>
  4019da:	4c 63 c0             	movsxd r8,eax
  4019dd:	66 42 89 04 47       	mov    WORD PTR [rdi+r8*2],ax
  4019e2:	66 42 89 04 46       	mov    WORD PTR [rsi+r8*2],ax
  4019e7:	8d 41 06             	lea    eax,[rcx+0x6]
  4019ea:	39 c2                	cmp    edx,eax
  4019ec:	0f 8e b3 00 00 00    	jle    401aa5 <initialiseArray+0x405>
  4019f2:	4c 63 c0             	movsxd r8,eax
  4019f5:	66 42 89 04 47       	mov    WORD PTR [rdi+r8*2],ax
  4019fa:	66 42 89 04 46       	mov    WORD PTR [rsi+r8*2],ax
  4019ff:	8d 41 07             	lea    eax,[rcx+0x7]
  401a02:	39 c2                	cmp    edx,eax
  401a04:	0f 8e 9b 00 00 00    	jle    401aa5 <initialiseArray+0x405>
  401a0a:	4c 63 c0             	movsxd r8,eax
  401a0d:	66 42 89 04 47       	mov    WORD PTR [rdi+r8*2],ax
  401a12:	66 42 89 04 46       	mov    WORD PTR [rsi+r8*2],ax
  401a17:	8d 41 08             	lea    eax,[rcx+0x8]
  401a1a:	39 c2                	cmp    edx,eax
  401a1c:	0f 8e 83 00 00 00    	jle    401aa5 <initialiseArray+0x405>
  401a22:	4c 63 c0             	movsxd r8,eax
  401a25:	66 42 89 04 47       	mov    WORD PTR [rdi+r8*2],ax
  401a2a:	66 42 89 04 46       	mov    WORD PTR [rsi+r8*2],ax
  401a2f:	8d 41 09             	lea    eax,[rcx+0x9]
  401a32:	39 c2                	cmp    edx,eax
  401a34:	7e 6f                	jle    401aa5 <initialiseArray+0x405>
  401a36:	4c 63 c0             	movsxd r8,eax
  401a39:	66 42 89 04 47       	mov    WORD PTR [rdi+r8*2],ax
  401a3e:	66 42 89 04 46       	mov    WORD PTR [rsi+r8*2],ax
  401a43:	8d 41 0a             	lea    eax,[rcx+0xa]
  401a46:	39 c2                	cmp    edx,eax
  401a48:	7e 5b                	jle    401aa5 <initialiseArray+0x405>
  401a4a:	4c 63 c0             	movsxd r8,eax
  401a4d:	66 42 89 04 47       	mov    WORD PTR [rdi+r8*2],ax
  401a52:	66 42 89 04 46       	mov    WORD PTR [rsi+r8*2],ax
  401a57:	8d 41 0b             	lea    eax,[rcx+0xb]
  401a5a:	39 c2                	cmp    edx,eax
  401a5c:	7e 47                	jle    401aa5 <initialiseArray+0x405>
  401a5e:	4c 63 c0             	movsxd r8,eax
  401a61:	66 42 89 04 47       	mov    WORD PTR [rdi+r8*2],ax
  401a66:	66 42 89 04 46       	mov    WORD PTR [rsi+r8*2],ax
  401a6b:	8d 41 0c             	lea    eax,[rcx+0xc]
  401a6e:	39 c2                	cmp    edx,eax
  401a70:	7e 33                	jle    401aa5 <initialiseArray+0x405>
  401a72:	4c 63 c0             	movsxd r8,eax
  401a75:	66 42 89 04 47       	mov    WORD PTR [rdi+r8*2],ax
  401a7a:	66 42 89 04 46       	mov    WORD PTR [rsi+r8*2],ax
  401a7f:	8d 41 0d             	lea    eax,[rcx+0xd]
  401a82:	39 c2                	cmp    edx,eax
  401a84:	7e 1f                	jle    401aa5 <initialiseArray+0x405>
  401a86:	83 c1 0e             	add    ecx,0xe
  401a89:	4c 63 c0             	movsxd r8,eax
  401a8c:	39 ca                	cmp    edx,ecx
  401a8e:	66 42 89 04 47       	mov    WORD PTR [rdi+r8*2],ax
  401a93:	66 42 89 04 46       	mov    WORD PTR [rsi+r8*2],ax
  401a98:	7e 0b                	jle    401aa5 <initialiseArray+0x405>
  401a9a:	48 63 c1             	movsxd rax,ecx
  401a9d:	66 89 0c 47          	mov    WORD PTR [rdi+rax*2],cx
  401aa1:	66 89 0c 46          	mov    WORD PTR [rsi+rax*2],cx
  401aa5:	5b                   	pop    rbx
  401aa6:	41 5a                	pop    r10
  401aa8:	41 5c                	pop    r12
  401aaa:	5d                   	pop    rbp
  401aab:	49 8d 62 f8          	lea    rsp,[r10-0x8]
  401aaf:	f3 c3                	repz ret 
  401ab1:	0f 1f 80 00 00 00 00 	nop    DWORD PTR [rax+0x0]
  401ab8:	31 c0                	xor    eax,eax
  401aba:	66 0f 1f 44 00 00    	nop    WORD PTR [rax+rax*1+0x0]
  401ac0:	66 89 04 47          	mov    WORD PTR [rdi+rax*2],ax
  401ac4:	66 89 04 46          	mov    WORD PTR [rsi+rax*2],ax
  401ac8:	48 83 c0 01          	add    rax,0x1
  401acc:	39 c2                	cmp    edx,eax
  401ace:	7f f0                	jg     401ac0 <initialiseArray+0x420>
  401ad0:	f3 c3                	repz ret 
  401ad2:	66 0f 1f 44 00 00    	nop    WORD PTR [rax+rax*1+0x0]
  401ad8:	c5 f8 77             	vzeroupper 
  401adb:	eb c8                	jmp    401aa5 <initialiseArray+0x405>
  401add:	0f 1f 00             	nop    DWORD PTR [rax]
  401ae0:	b9 0e 00 00 00       	mov    ecx,0xe
  401ae5:	e9 ca fd ff ff       	jmp    4018b4 <initialiseArray+0x214>
  401aea:	66 0f 1f 44 00 00    	nop    WORD PTR [rax+rax*1+0x0]
  401af0:	b9 01 00 00 00       	mov    ecx,0x1
  401af5:	e9 ba fd ff ff       	jmp    4018b4 <initialiseArray+0x214>
  401afa:	66 0f 1f 44 00 00    	nop    WORD PTR [rax+rax*1+0x0]
  401b00:	b9 02 00 00 00       	mov    ecx,0x2
  401b05:	e9 aa fd ff ff       	jmp    4018b4 <initialiseArray+0x214>
  401b0a:	66 0f 1f 44 00 00    	nop    WORD PTR [rax+rax*1+0x0]
  401b10:	b9 03 00 00 00       	mov    ecx,0x3
  401b15:	e9 9a fd ff ff       	jmp    4018b4 <initialiseArray+0x214>
  401b1a:	66 0f 1f 44 00 00    	nop    WORD PTR [rax+rax*1+0x0]
  401b20:	b9 04 00 00 00       	mov    ecx,0x4
  401b25:	e9 8a fd ff ff       	jmp    4018b4 <initialiseArray+0x214>
  401b2a:	66 0f 1f 44 00 00    	nop    WORD PTR [rax+rax*1+0x0]
  401b30:	b9 05 00 00 00       	mov    ecx,0x5
  401b35:	e9 7a fd ff ff       	jmp    4018b4 <initialiseArray+0x214>
  401b3a:	66 0f 1f 44 00 00    	nop    WORD PTR [rax+rax*1+0x0]
  401b40:	b9 06 00 00 00       	mov    ecx,0x6
  401b45:	e9 6a fd ff ff       	jmp    4018b4 <initialiseArray+0x214>
  401b4a:	66 0f 1f 44 00 00    	nop    WORD PTR [rax+rax*1+0x0]
  401b50:	b9 07 00 00 00       	mov    ecx,0x7
  401b55:	e9 5a fd ff ff       	jmp    4018b4 <initialiseArray+0x214>
  401b5a:	66 0f 1f 44 00 00    	nop    WORD PTR [rax+rax*1+0x0]
  401b60:	b9 08 00 00 00       	mov    ecx,0x8
  401b65:	e9 4a fd ff ff       	jmp    4018b4 <initialiseArray+0x214>
  401b6a:	66 0f 1f 44 00 00    	nop    WORD PTR [rax+rax*1+0x0]
  401b70:	b9 09 00 00 00       	mov    ecx,0x9
  401b75:	e9 3a fd ff ff       	jmp    4018b4 <initialiseArray+0x214>
  401b7a:	66 0f 1f 44 00 00    	nop    WORD PTR [rax+rax*1+0x0]
  401b80:	b9 0a 00 00 00       	mov    ecx,0xa
  401b85:	e9 2a fd ff ff       	jmp    4018b4 <initialiseArray+0x214>
  401b8a:	66 0f 1f 44 00 00    	nop    WORD PTR [rax+rax*1+0x0]
  401b90:	b9 0b 00 00 00       	mov    ecx,0xb
  401b95:	e9 1a fd ff ff       	jmp    4018b4 <initialiseArray+0x214>
  401b9a:	66 0f 1f 44 00 00    	nop    WORD PTR [rax+rax*1+0x0]
  401ba0:	b9 0c 00 00 00       	mov    ecx,0xc
  401ba5:	e9 0a fd ff ff       	jmp    4018b4 <initialiseArray+0x214>
  401baa:	66 0f 1f 44 00 00    	nop    WORD PTR [rax+rax*1+0x0]
  401bb0:	b9 0d 00 00 00       	mov    ecx,0xd
  401bb5:	e9 fa fc ff ff       	jmp    4018b4 <initialiseArray+0x214>
  401bba:	66 0f 1f 44 00 00    	nop    WORD PTR [rax+rax*1+0x0]

0000000000401bc0 <benchmark_hamming_length>:
  401bc0:	41 55                	push   r13
  401bc2:	4c 8d 6c 24 10       	lea    r13,[rsp+0x10]
  401bc7:	48 83 e4 e0          	and    rsp,0xffffffffffffffe0
  401bcb:	41 ff 75 f8          	push   QWORD PTR [r13-0x8]
  401bcf:	55                   	push   rbp
  401bd0:	48 89 e5             	mov    rbp,rsp
  401bd3:	41 57                	push   r15
  401bd5:	41 56                	push   r14
  401bd7:	41 55                	push   r13
  401bd9:	4c 63 ef             	movsxd r13,edi
  401bdc:	41 54                	push   r12
  401bde:	53                   	push   rbx
  401bdf:	4c 89 eb             	mov    rbx,r13
  401be2:	4d 01 ed             	add    r13,r13
  401be5:	4c 89 ef             	mov    rdi,r13
  401be8:	48 81 ec 88 00 00 00 	sub    rsp,0x88
  401bef:	64 48 8b 04 25 28 00 	mov    rax,QWORD PTR fs:0x28
  401bf6:	00 00 
  401bf8:	48 89 45 c8          	mov    QWORD PTR [rbp-0x38],rax
  401bfc:	31 c0                	xor    eax,eax
  401bfe:	e8 8d e9 ff ff       	call   400590 <malloc@plt>
  401c03:	4c 89 ef             	mov    rdi,r13
  401c06:	49 89 c4             	mov    r12,rax
  401c09:	e8 82 e9 ff ff       	call   400590 <malloc@plt>
  401c0e:	85 db                	test   ebx,ebx
  401c10:	49 89 c7             	mov    r15,rax
  401c13:	0f 8e a0 0b 00 00    	jle    4027b9 <benchmark_hamming_length+0xbf9>
  401c19:	4d 89 e0             	mov    r8,r12
  401c1c:	89 da                	mov    edx,ebx
  401c1e:	41 83 e0 1f          	and    r8d,0x1f
  401c22:	49 d1 e8             	shr    r8,1
  401c25:	49 f7 d8             	neg    r8
  401c28:	41 83 e0 0f          	and    r8d,0xf
  401c2c:	41 39 d8             	cmp    r8d,ebx
  401c2f:	44 0f 47 c3          	cmova  r8d,ebx
  401c33:	83 fb 11             	cmp    ebx,0x11
  401c36:	0f 8f 6b 0b 00 00    	jg     4027a7 <benchmark_hamming_length+0xbe7>
  401c3c:	45 31 f6             	xor    r14d,r14d
  401c3f:	31 c0                	xor    eax,eax
  401c41:	83 fa 01             	cmp    edx,0x1
  401c44:	66 45 89 34 24       	mov    WORD PTR [r12],r14w
  401c49:	66 41 89 07          	mov    WORD PTR [r15],ax
  401c4d:	0f 84 8f 0b 00 00    	je     4027e2 <benchmark_hamming_length+0xc22>
  401c53:	41 bb 01 00 00 00    	mov    r11d,0x1
  401c59:	41 bd 01 00 00 00    	mov    r13d,0x1
  401c5f:	83 fa 02             	cmp    edx,0x2
  401c62:	66 45 89 5c 24 02    	mov    WORD PTR [r12+0x2],r11w
  401c68:	66 45 89 6f 02       	mov    WORD PTR [r15+0x2],r13w
  401c6d:	0f 84 d3 0b 00 00    	je     402846 <benchmark_hamming_length+0xc86>
  401c73:	41 b9 02 00 00 00    	mov    r9d,0x2
  401c79:	41 ba 02 00 00 00    	mov    r10d,0x2
  401c7f:	83 fa 03             	cmp    edx,0x3
  401c82:	66 45 89 4c 24 04    	mov    WORD PTR [r12+0x4],r9w
  401c88:	66 45 89 57 04       	mov    WORD PTR [r15+0x4],r10w
  401c8d:	0f 84 bd 0b 00 00    	je     402850 <benchmark_hamming_length+0xc90>
  401c93:	be 03 00 00 00       	mov    esi,0x3
  401c98:	bf 03 00 00 00       	mov    edi,0x3
  401c9d:	83 fa 04             	cmp    edx,0x4
  401ca0:	66 41 89 74 24 06    	mov    WORD PTR [r12+0x6],si
  401ca6:	66 41 89 7f 06       	mov    WORD PTR [r15+0x6],di
  401cab:	0f 84 a9 0b 00 00    	je     40285a <benchmark_hamming_length+0xc9a>
  401cb1:	b8 04 00 00 00       	mov    eax,0x4
  401cb6:	b9 04 00 00 00       	mov    ecx,0x4
  401cbb:	83 fa 05             	cmp    edx,0x5
  401cbe:	66 41 89 44 24 08    	mov    WORD PTR [r12+0x8],ax
  401cc4:	66 41 89 4f 08       	mov    WORD PTR [r15+0x8],cx
  401cc9:	0f 84 1d 0b 00 00    	je     4027ec <benchmark_hamming_length+0xc2c>
  401ccf:	b8 05 00 00 00       	mov    eax,0x5
  401cd4:	83 fa 06             	cmp    edx,0x6
  401cd7:	66 41 89 44 24 0a    	mov    WORD PTR [r12+0xa],ax
  401cdd:	b8 05 00 00 00       	mov    eax,0x5
  401ce2:	66 41 89 47 0a       	mov    WORD PTR [r15+0xa],ax
  401ce7:	0f 84 eb 0a 00 00    	je     4027d8 <benchmark_hamming_length+0xc18>
  401ced:	b8 06 00 00 00       	mov    eax,0x6
  401cf2:	83 fa 07             	cmp    edx,0x7
  401cf5:	66 41 89 44 24 0c    	mov    WORD PTR [r12+0xc],ax
  401cfb:	b8 06 00 00 00       	mov    eax,0x6
  401d00:	66 41 89 47 0c       	mov    WORD PTR [r15+0xc],ax
  401d05:	0f 84 b9 0a 00 00    	je     4027c4 <benchmark_hamming_length+0xc04>
  401d0b:	41 be 07 00 00 00    	mov    r14d,0x7
  401d11:	b8 07 00 00 00       	mov    eax,0x7
  401d16:	83 fa 08             	cmp    edx,0x8
  401d19:	66 45 89 74 24 0e    	mov    WORD PTR [r12+0xe],r14w
  401d1f:	66 41 89 47 0e       	mov    WORD PTR [r15+0xe],ax
  401d24:	0f 84 a4 0a 00 00    	je     4027ce <benchmark_hamming_length+0xc0e>
  401d2a:	41 bb 08 00 00 00    	mov    r11d,0x8
  401d30:	41 bd 08 00 00 00    	mov    r13d,0x8
  401d36:	83 fa 09             	cmp    edx,0x9
  401d39:	66 45 89 5c 24 10    	mov    WORD PTR [r12+0x10],r11w
  401d3f:	66 45 89 6f 10       	mov    WORD PTR [r15+0x10],r13w
  401d44:	0f 84 ca 0a 00 00    	je     402814 <benchmark_hamming_length+0xc54>
  401d4a:	41 b9 09 00 00 00    	mov    r9d,0x9
  401d50:	41 ba 09 00 00 00    	mov    r10d,0x9
  401d56:	83 fa 0a             	cmp    edx,0xa
  401d59:	66 45 89 4c 24 12    	mov    WORD PTR [r12+0x12],r9w
  401d5f:	66 45 89 57 12       	mov    WORD PTR [r15+0x12],r10w
  401d64:	0f 84 b4 0a 00 00    	je     40281e <benchmark_hamming_length+0xc5e>
  401d6a:	be 0a 00 00 00       	mov    esi,0xa
  401d6f:	bf 0a 00 00 00       	mov    edi,0xa
  401d74:	83 fa 0b             	cmp    edx,0xb
  401d77:	66 41 89 74 24 14    	mov    WORD PTR [r12+0x14],si
  401d7d:	66 41 89 7f 14       	mov    WORD PTR [r15+0x14],di
  401d82:	0f 84 a0 0a 00 00    	je     402828 <benchmark_hamming_length+0xc68>
  401d88:	b8 0b 00 00 00       	mov    eax,0xb
  401d8d:	b9 0b 00 00 00       	mov    ecx,0xb
  401d92:	83 fa 0c             	cmp    edx,0xc
  401d95:	66 41 89 44 24 16    	mov    WORD PTR [r12+0x16],ax
  401d9b:	66 41 89 4f 16       	mov    WORD PTR [r15+0x16],cx
  401da0:	0f 84 8c 0a 00 00    	je     402832 <benchmark_hamming_length+0xc72>
  401da6:	b8 0c 00 00 00       	mov    eax,0xc
  401dab:	83 fa 0d             	cmp    edx,0xd
  401dae:	66 41 89 44 24 18    	mov    WORD PTR [r12+0x18],ax
  401db4:	b8 0c 00 00 00       	mov    eax,0xc
  401db9:	66 41 89 47 18       	mov    WORD PTR [r15+0x18],ax
  401dbe:	0f 84 78 0a 00 00    	je     40283c <benchmark_hamming_length+0xc7c>
  401dc4:	b8 0d 00 00 00       	mov    eax,0xd
  401dc9:	83 fa 0e             	cmp    edx,0xe
  401dcc:	66 41 89 44 24 1a    	mov    WORD PTR [r12+0x1a],ax
  401dd2:	b8 0d 00 00 00       	mov    eax,0xd
  401dd7:	66 41 89 47 1a       	mov    WORD PTR [r15+0x1a],ax
  401ddc:	0f 84 14 0a 00 00    	je     4027f6 <benchmark_hamming_length+0xc36>
  401de2:	41 be 0e 00 00 00    	mov    r14d,0xe
  401de8:	b8 0e 00 00 00       	mov    eax,0xe
  401ded:	83 fa 0f             	cmp    edx,0xf
  401df0:	66 45 89 74 24 1c    	mov    WORD PTR [r12+0x1c],r14w
  401df6:	66 41 89 47 1c       	mov    WORD PTR [r15+0x1c],ax
  401dfb:	0f 84 ff 09 00 00    	je     402800 <benchmark_hamming_length+0xc40>
  401e01:	41 bb 0f 00 00 00    	mov    r11d,0xf
  401e07:	41 bd 0f 00 00 00    	mov    r13d,0xf
  401e0d:	83 fa 11             	cmp    edx,0x11
  401e10:	66 45 89 5c 24 1e    	mov    WORD PTR [r12+0x1e],r11w
  401e16:	66 45 89 6f 1e       	mov    WORD PTR [r15+0x1e],r13w
  401e1b:	0f 85 e9 09 00 00    	jne    40280a <benchmark_hamming_length+0xc4a>
  401e21:	41 b9 10 00 00 00    	mov    r9d,0x10
  401e27:	41 ba 10 00 00 00    	mov    r10d,0x10
  401e2d:	b8 11 00 00 00       	mov    eax,0x11
  401e32:	66 45 89 4c 24 20    	mov    WORD PTR [r12+0x20],r9w
  401e38:	66 45 89 57 20       	mov    WORD PTR [r15+0x20],r10w
  401e3d:	39 d3                	cmp    ebx,edx
  401e3f:	0f 84 ae 04 00 00    	je     4022f3 <benchmark_hamming_length+0x733>
  401e45:	89 df                	mov    edi,ebx
  401e47:	44 8d 6b ff          	lea    r13d,[rbx-0x1]
  401e4b:	89 d6                	mov    esi,edx
  401e4d:	29 d7                	sub    edi,edx
  401e4f:	8d 4f f0             	lea    ecx,[rdi-0x10]
  401e52:	45 89 eb             	mov    r11d,r13d
  401e55:	41 29 d3             	sub    r11d,edx
  401e58:	c1 e9 04             	shr    ecx,0x4
  401e5b:	83 c1 01             	add    ecx,0x1
  401e5e:	41 89 c9             	mov    r9d,ecx
  401e61:	41 c1 e1 04          	shl    r9d,0x4
  401e65:	41 83 fb 0e          	cmp    r11d,0xe
  401e69:	0f 86 80 00 00 00    	jbe    401eef <benchmark_hamming_length+0x32f>
  401e6f:	48 8d 14 36          	lea    rdx,[rsi+rsi*1]
  401e73:	89 45 98             	mov    DWORD PTR [rbp-0x68],eax
  401e76:	c5 fd 6f 2d 62 0b 00 	vmovdqa ymm5,YMMWORD PTR [rip+0xb62]        # 4029e0 <_IO_stdin_used+0xe0>
  401e7d:	00 
  401e7e:	c4 e2 7d 58 55 98    	vpbroadcastd ymm2,DWORD PTR [rbp-0x68]
  401e84:	31 f6                	xor    esi,esi
  401e86:	45 31 d2             	xor    r10d,r10d
  401e89:	c5 fd 6f 25 6f 0b 00 	vmovdqa ymm4,YMMWORD PTR [rip+0xb6f]        # 402a00 <_IO_stdin_used+0x100>
  401e90:	00 
  401e91:	4d 8d 1c 14          	lea    r11,[r12+rdx*1]
  401e95:	4c 01 fa             	add    rdx,r15
  401e98:	c5 fd 6f 1d 80 0b 00 	vmovdqa ymm3,YMMWORD PTR [rip+0xb80]        # 402a20 <_IO_stdin_used+0x120>
  401e9f:	00 
  401ea0:	c5 ed fe 15 18 0b 00 	vpaddd ymm2,ymm2,YMMWORD PTR [rip+0xb18]        # 4029c0 <_IO_stdin_used+0xc0>
  401ea7:	00 
  401ea8:	c5 ed fe c4          	vpaddd ymm0,ymm2,ymm4
  401eac:	c5 e5 db ca          	vpand  ymm1,ymm3,ymm2
  401eb0:	41 83 c2 01          	add    r10d,0x1
  401eb4:	c5 e5 db c0          	vpand  ymm0,ymm3,ymm0
  401eb8:	c5 ed fe d5          	vpaddd ymm2,ymm2,ymm5
  401ebc:	c4 e2 75 2b c0       	vpackusdw ymm0,ymm1,ymm0
  401ec1:	c4 e3 fd 00 c0 d8    	vpermq ymm0,ymm0,0xd8
  401ec7:	c4 c1 7d 7f 04 33    	vmovdqa YMMWORD PTR [r11+rsi*1],ymm0
  401ecd:	c4 e3 7d 39 44 32 10 	vextracti128 XMMWORD PTR [rdx+rsi*1+0x10],ymm0,0x1
  401ed4:	01 
  401ed5:	c5 f8 11 04 32       	vmovups XMMWORD PTR [rdx+rsi*1],xmm0
  401eda:	48 83 c6 20          	add    rsi,0x20
  401ede:	41 39 ca             	cmp    r10d,ecx
  401ee1:	72 c5                	jb     401ea8 <benchmark_hamming_length+0x2e8>
  401ee3:	44 01 c8             	add    eax,r9d
  401ee6:	44 39 cf             	cmp    edi,r9d
  401ee9:	0f 84 45 01 00 00    	je     402034 <benchmark_hamming_length+0x474>
  401eef:	48 63 d0             	movsxd rdx,eax
  401ef2:	66 41 89 04 54       	mov    WORD PTR [r12+rdx*2],ax
  401ef7:	66 41 89 04 57       	mov    WORD PTR [r15+rdx*2],ax
  401efc:	8d 50 01             	lea    edx,[rax+0x1]
  401eff:	39 d3                	cmp    ebx,edx
  401f01:	0f 8e 2d 01 00 00    	jle    402034 <benchmark_hamming_length+0x474>
  401f07:	48 63 ca             	movsxd rcx,edx
  401f0a:	66 41 89 14 4c       	mov    WORD PTR [r12+rcx*2],dx
  401f0f:	66 41 89 14 4f       	mov    WORD PTR [r15+rcx*2],dx
  401f14:	8d 50 02             	lea    edx,[rax+0x2]
  401f17:	39 d3                	cmp    ebx,edx
  401f19:	0f 8e 15 01 00 00    	jle    402034 <benchmark_hamming_length+0x474>
  401f1f:	48 63 ca             	movsxd rcx,edx
  401f22:	66 41 89 14 4c       	mov    WORD PTR [r12+rcx*2],dx
  401f27:	66 41 89 14 4f       	mov    WORD PTR [r15+rcx*2],dx
  401f2c:	8d 50 03             	lea    edx,[rax+0x3]
  401f2f:	39 d3                	cmp    ebx,edx
  401f31:	0f 8e fd 00 00 00    	jle    402034 <benchmark_hamming_length+0x474>
  401f37:	48 63 ca             	movsxd rcx,edx
  401f3a:	66 41 89 14 4c       	mov    WORD PTR [r12+rcx*2],dx
  401f3f:	66 41 89 14 4f       	mov    WORD PTR [r15+rcx*2],dx
  401f44:	8d 50 04             	lea    edx,[rax+0x4]
  401f47:	39 d3                	cmp    ebx,edx
  401f49:	0f 8e e5 00 00 00    	jle    402034 <benchmark_hamming_length+0x474>
  401f4f:	48 63 ca             	movsxd rcx,edx
  401f52:	66 41 89 14 4c       	mov    WORD PTR [r12+rcx*2],dx
  401f57:	66 41 89 14 4f       	mov    WORD PTR [r15+rcx*2],dx
  401f5c:	8d 50 05             	lea    edx,[rax+0x5]
  401f5f:	39 d3                	cmp    ebx,edx
  401f61:	0f 8e cd 00 00 00    	jle    402034 <benchmark_hamming_length+0x474>
  401f67:	48 63 ca             	movsxd rcx,edx
  401f6a:	66 41 89 14 4c       	mov    WORD PTR [r12+rcx*2],dx
  401f6f:	66 41 89 14 4f       	mov    WORD PTR [r15+rcx*2],dx
  401f74:	8d 50 06             	lea    edx,[rax+0x6]
  401f77:	39 d3                	cmp    ebx,edx
  401f79:	0f 8e b5 00 00 00    	jle    402034 <benchmark_hamming_length+0x474>
  401f7f:	48 63 ca             	movsxd rcx,edx
  401f82:	66 41 89 14 4c       	mov    WORD PTR [r12+rcx*2],dx
  401f87:	66 41 89 14 4f       	mov    WORD PTR [r15+rcx*2],dx
  401f8c:	8d 50 07             	lea    edx,[rax+0x7]
  401f8f:	39 d3                	cmp    ebx,edx
  401f91:	0f 8e 9d 00 00 00    	jle    402034 <benchmark_hamming_length+0x474>
  401f97:	48 63 ca             	movsxd rcx,edx
  401f9a:	66 41 89 14 4c       	mov    WORD PTR [r12+rcx*2],dx
  401f9f:	66 41 89 14 4f       	mov    WORD PTR [r15+rcx*2],dx
  401fa4:	8d 50 08             	lea    edx,[rax+0x8]
  401fa7:	39 d3                	cmp    ebx,edx
  401fa9:	0f 8e 85 00 00 00    	jle    402034 <benchmark_hamming_length+0x474>
  401faf:	48 63 ca             	movsxd rcx,edx
  401fb2:	66 41 89 14 4c       	mov    WORD PTR [r12+rcx*2],dx
  401fb7:	66 41 89 14 4f       	mov    WORD PTR [r15+rcx*2],dx
  401fbc:	8d 50 09             	lea    edx,[rax+0x9]
  401fbf:	39 d3                	cmp    ebx,edx
  401fc1:	7e 71                	jle    402034 <benchmark_hamming_length+0x474>
  401fc3:	48 63 ca             	movsxd rcx,edx
  401fc6:	66 41 89 14 4c       	mov    WORD PTR [r12+rcx*2],dx
  401fcb:	66 41 89 14 4f       	mov    WORD PTR [r15+rcx*2],dx
  401fd0:	8d 50 0a             	lea    edx,[rax+0xa]
  401fd3:	39 d3                	cmp    ebx,edx
  401fd5:	7e 5d                	jle    402034 <benchmark_hamming_length+0x474>
  401fd7:	48 63 ca             	movsxd rcx,edx
  401fda:	66 41 89 14 4c       	mov    WORD PTR [r12+rcx*2],dx
  401fdf:	66 41 89 14 4f       	mov    WORD PTR [r15+rcx*2],dx
  401fe4:	8d 50 0b             	lea    edx,[rax+0xb]
  401fe7:	39 d3                	cmp    ebx,edx
  401fe9:	7e 49                	jle    402034 <benchmark_hamming_length+0x474>
  401feb:	48 63 ca             	movsxd rcx,edx
  401fee:	66 41 89 14 4c       	mov    WORD PTR [r12+rcx*2],dx
  401ff3:	66 41 89 14 4f       	mov    WORD PTR [r15+rcx*2],dx
  401ff8:	8d 50 0c             	lea    edx,[rax+0xc]
  401ffb:	39 d3                	cmp    ebx,edx
  401ffd:	7e 35                	jle    402034 <benchmark_hamming_length+0x474>
  401fff:	48 63 ca             	movsxd rcx,edx
  402002:	66 41 89 14 4c       	mov    WORD PTR [r12+rcx*2],dx
  402007:	66 41 89 14 4f       	mov    WORD PTR [r15+rcx*2],dx
  40200c:	8d 50 0d             	lea    edx,[rax+0xd]
  40200f:	39 d3                	cmp    ebx,edx
  402011:	7e 21                	jle    402034 <benchmark_hamming_length+0x474>
  402013:	83 c0 0e             	add    eax,0xe
  402016:	48 63 ca             	movsxd rcx,edx
  402019:	39 c3                	cmp    ebx,eax
  40201b:	66 41 89 14 4c       	mov    WORD PTR [r12+rcx*2],dx
  402020:	66 41 89 14 4f       	mov    WORD PTR [r15+rcx*2],dx
  402025:	7e 0d                	jle    402034 <benchmark_hamming_length+0x474>
  402027:	48 63 d0             	movsxd rdx,eax
  40202a:	66 41 89 04 54       	mov    WORD PTR [r12+rdx*2],ax
  40202f:	66 41 89 04 57       	mov    WORD PTR [r15+rdx*2],ax
  402034:	83 fb 12             	cmp    ebx,0x12
  402037:	0f 8f 9e 02 00 00    	jg     4022db <benchmark_hamming_length+0x71b>
  40203d:	41 89 d8             	mov    r8d,ebx
  402040:	89 de                	mov    esi,ebx
  402042:	89 df                	mov    edi,ebx
  402044:	4c 89 f8             	mov    rax,r15
  402047:	44 29 c6             	sub    esi,r8d
  40204a:	4c 89 e1             	mov    rcx,r12
  40204d:	31 d2                	xor    edx,edx
  40204f:	90                   	nop
  402050:	44 0f b7 10          	movzx  r10d,WORD PTR [rax]
  402054:	45 31 c9             	xor    r9d,r9d
  402057:	66 44 39 11          	cmp    WORD PTR [rcx],r10w
  40205b:	41 0f 95 c1          	setne  r9b
  40205f:	83 ef 01             	sub    edi,0x1
  402062:	48 83 c1 02          	add    rcx,0x2
  402066:	44 01 ca             	add    edx,r9d
  402069:	48 83 c0 02          	add    rax,0x2
  40206d:	39 f7                	cmp    edi,esi
  40206f:	75 df                	jne    402050 <benchmark_hamming_length+0x490>
  402071:	44 39 c3             	cmp    ebx,r8d
  402074:	0f 84 86 02 00 00    	je     402300 <benchmark_hamming_length+0x740>
  40207a:	41 89 da             	mov    r10d,ebx
  40207d:	45 89 ee             	mov    r14d,r13d
  402080:	45 89 c3             	mov    r11d,r8d
  402083:	45 29 c2             	sub    r10d,r8d
  402086:	45 29 c6             	sub    r14d,r8d
  402089:	41 8d 7a f0          	lea    edi,[r10-0x10]
  40208d:	c1 ef 04             	shr    edi,0x4
  402090:	83 c7 01             	add    edi,0x1
  402093:	41 89 f9             	mov    r9d,edi
  402096:	41 c1 e1 04          	shl    r9d,0x4
  40209a:	41 83 fe 0e          	cmp    r14d,0xe
  40209e:	0f 86 b6 00 00 00    	jbe    40215a <benchmark_hamming_length+0x59a>
  4020a4:	4f 8d 04 1b          	lea    r8,[r11+r11*1]
  4020a8:	48 89 45 90          	mov    QWORD PTR [rbp-0x70],rax
  4020ac:	c5 fd 6f 1d ec 08 00 	vmovdqa ymm3,YMMWORD PTR [rip+0x8ec]        # 4029a0 <_IO_stdin_used+0xa0>
  4020b3:	00 
  4020b4:	c5 f9 ef c0          	vpxor  xmm0,xmm0,xmm0
  4020b8:	45 31 f6             	xor    r14d,r14d
  4020bb:	4f 8d 1c 04          	lea    r11,[r12+r8*1]
  4020bf:	4d 01 f8             	add    r8,r15
  4020c2:	4c 89 5d 98          	mov    QWORD PTR [rbp-0x68],r11
  4020c6:	48 8b 45 98          	mov    rax,QWORD PTR [rbp-0x68]
  4020ca:	45 31 db             	xor    r11d,r11d
  4020cd:	c4 81 7a 6f 0c 18    	vmovdqu xmm1,XMMWORD PTR [r8+r11*1]
  4020d3:	41 83 c6 01          	add    r14d,0x1
  4020d7:	c4 83 75 38 4c 18 10 	vinserti128 ymm1,ymm1,XMMWORD PTR [r8+r11*1+0x10],0x1
  4020de:	01 
  4020df:	c4 a1 75 75 0c 18    	vpcmpeqw ymm1,ymm1,YMMWORD PTR [rax+r11*1]
  4020e5:	49 83 c3 20          	add    r11,0x20
  4020e9:	41 39 fe             	cmp    r14d,edi
  4020ec:	c5 f5 df cb          	vpandn ymm1,ymm1,ymm3
  4020f0:	c4 e2 7d 23 d1       	vpmovsxwd ymm2,xmm1
  4020f5:	c4 e3 7d 39 c9 01    	vextracti128 xmm1,ymm1,0x1
  4020fb:	c5 ed fe c0          	vpaddd ymm0,ymm2,ymm0
  4020ff:	c4 e2 7d 23 c9       	vpmovsxwd ymm1,xmm1
  402104:	c5 f5 fe c0          	vpaddd ymm0,ymm1,ymm0
  402108:	72 c3                	jb     4020cd <benchmark_hamming_length+0x50d>
  40210a:	c5 f1 ef c9          	vpxor  xmm1,xmm1,xmm1
  40210e:	48 8b 45 90          	mov    rax,QWORD PTR [rbp-0x70]
  402112:	44 29 ce             	sub    esi,r9d
  402115:	c4 e3 7d 46 d1 21    	vperm2i128 ymm2,ymm0,ymm1,0x21
  40211b:	c5 fd fe c2          	vpaddd ymm0,ymm0,ymm2
  40211f:	c4 e3 7d 46 d1 21    	vperm2i128 ymm2,ymm0,ymm1,0x21
  402125:	c4 e3 6d 0f d0 08    	vpalignr ymm2,ymm2,ymm0,0x8
  40212b:	c5 fd fe c2          	vpaddd ymm0,ymm0,ymm2
  40212f:	c4 e3 7d 46 c9 21    	vperm2i128 ymm1,ymm0,ymm1,0x21
  402135:	c4 e3 75 0f c8 04    	vpalignr ymm1,ymm1,ymm0,0x4
  40213b:	c5 fd fe c1          	vpaddd ymm0,ymm0,ymm1
  40213f:	c5 f9 7e c7          	vmovd  edi,xmm0
  402143:	01 fa                	add    edx,edi
  402145:	44 89 cf             	mov    edi,r9d
  402148:	48 01 ff             	add    rdi,rdi
  40214b:	48 01 f9             	add    rcx,rdi
  40214e:	48 01 f8             	add    rax,rdi
  402151:	45 39 ca             	cmp    r10d,r9d
  402154:	0f 84 a6 01 00 00    	je     402300 <benchmark_hamming_length+0x740>
  40215a:	0f b7 38             	movzx  edi,WORD PTR [rax]
  40215d:	66 39 39             	cmp    WORD PTR [rcx],di
  402160:	40 0f 95 c7          	setne  dil
  402164:	40 0f b6 ff          	movzx  edi,dil
  402168:	01 fa                	add    edx,edi
  40216a:	83 fe 01             	cmp    esi,0x1
  40216d:	0f 84 8d 01 00 00    	je     402300 <benchmark_hamming_length+0x740>
  402173:	0f b7 78 02          	movzx  edi,WORD PTR [rax+0x2]
  402177:	66 39 79 02          	cmp    WORD PTR [rcx+0x2],di
  40217b:	40 0f 95 c7          	setne  dil
  40217f:	40 0f b6 ff          	movzx  edi,dil
  402183:	01 fa                	add    edx,edi
  402185:	83 fe 02             	cmp    esi,0x2
  402188:	0f 84 72 01 00 00    	je     402300 <benchmark_hamming_length+0x740>
  40218e:	0f b7 78 04          	movzx  edi,WORD PTR [rax+0x4]
  402192:	66 39 79 04          	cmp    WORD PTR [rcx+0x4],di
  402196:	40 0f 95 c7          	setne  dil
  40219a:	40 0f b6 ff          	movzx  edi,dil
  40219e:	01 fa                	add    edx,edi
  4021a0:	83 fe 03             	cmp    esi,0x3
  4021a3:	0f 84 57 01 00 00    	je     402300 <benchmark_hamming_length+0x740>
  4021a9:	0f b7 78 06          	movzx  edi,WORD PTR [rax+0x6]
  4021ad:	66 39 79 06          	cmp    WORD PTR [rcx+0x6],di
  4021b1:	40 0f 95 c7          	setne  dil
  4021b5:	40 0f b6 ff          	movzx  edi,dil
  4021b9:	01 fa                	add    edx,edi
  4021bb:	83 fe 04             	cmp    esi,0x4
  4021be:	0f 84 3c 01 00 00    	je     402300 <benchmark_hamming_length+0x740>
  4021c4:	0f b7 78 08          	movzx  edi,WORD PTR [rax+0x8]
  4021c8:	66 39 79 08          	cmp    WORD PTR [rcx+0x8],di
  4021cc:	40 0f 95 c7          	setne  dil
  4021d0:	40 0f b6 ff          	movzx  edi,dil
  4021d4:	01 fa                	add    edx,edi
  4021d6:	83 fe 05             	cmp    esi,0x5
  4021d9:	0f 84 21 01 00 00    	je     402300 <benchmark_hamming_length+0x740>
  4021df:	0f b7 78 0a          	movzx  edi,WORD PTR [rax+0xa]
  4021e3:	66 39 79 0a          	cmp    WORD PTR [rcx+0xa],di
  4021e7:	40 0f 95 c7          	setne  dil
  4021eb:	40 0f b6 ff          	movzx  edi,dil
  4021ef:	01 fa                	add    edx,edi
  4021f1:	83 fe 06             	cmp    esi,0x6
  4021f4:	0f 84 06 01 00 00    	je     402300 <benchmark_hamming_length+0x740>
  4021fa:	0f b7 78 0c          	movzx  edi,WORD PTR [rax+0xc]
  4021fe:	66 39 79 0c          	cmp    WORD PTR [rcx+0xc],di
  402202:	40 0f 95 c7          	setne  dil
  402206:	40 0f b6 ff          	movzx  edi,dil
  40220a:	01 fa                	add    edx,edi
  40220c:	83 fe 07             	cmp    esi,0x7
  40220f:	0f 84 eb 00 00 00    	je     402300 <benchmark_hamming_length+0x740>
  402215:	0f b7 78 0e          	movzx  edi,WORD PTR [rax+0xe]
  402219:	66 39 79 0e          	cmp    WORD PTR [rcx+0xe],di
  40221d:	40 0f 95 c7          	setne  dil
  402221:	40 0f b6 ff          	movzx  edi,dil
  402225:	01 fa                	add    edx,edi
  402227:	83 fe 08             	cmp    esi,0x8
  40222a:	0f 84 d0 00 00 00    	je     402300 <benchmark_hamming_length+0x740>
  402230:	0f b7 78 10          	movzx  edi,WORD PTR [rax+0x10]
  402234:	66 39 79 10          	cmp    WORD PTR [rcx+0x10],di
  402238:	40 0f 95 c7          	setne  dil
  40223c:	40 0f b6 ff          	movzx  edi,dil
  402240:	01 fa                	add    edx,edi
  402242:	83 fe 09             	cmp    esi,0x9
  402245:	0f 84 b5 00 00 00    	je     402300 <benchmark_hamming_length+0x740>
  40224b:	0f b7 78 12          	movzx  edi,WORD PTR [rax+0x12]
  40224f:	66 39 79 12          	cmp    WORD PTR [rcx+0x12],di
  402253:	40 0f 95 c7          	setne  dil
  402257:	40 0f b6 ff          	movzx  edi,dil
  40225b:	01 fa                	add    edx,edi
  40225d:	83 fe 0a             	cmp    esi,0xa
  402260:	0f 84 9a 00 00 00    	je     402300 <benchmark_hamming_length+0x740>
  402266:	0f b7 78 14          	movzx  edi,WORD PTR [rax+0x14]
  40226a:	66 39 79 14          	cmp    WORD PTR [rcx+0x14],di
  40226e:	40 0f 95 c7          	setne  dil
  402272:	40 0f b6 ff          	movzx  edi,dil
  402276:	01 fa                	add    edx,edi
  402278:	83 fe 0b             	cmp    esi,0xb
  40227b:	0f 84 7f 00 00 00    	je     402300 <benchmark_hamming_length+0x740>
  402281:	0f b7 78 16          	movzx  edi,WORD PTR [rax+0x16]
  402285:	66 39 79 16          	cmp    WORD PTR [rcx+0x16],di
  402289:	40 0f 95 c7          	setne  dil
  40228d:	40 0f b6 ff          	movzx  edi,dil
  402291:	01 fa                	add    edx,edi
  402293:	83 fe 0c             	cmp    esi,0xc
  402296:	74 68                	je     402300 <benchmark_hamming_length+0x740>
  402298:	0f b7 78 18          	movzx  edi,WORD PTR [rax+0x18]
  40229c:	66 39 79 18          	cmp    WORD PTR [rcx+0x18],di
  4022a0:	40 0f 95 c7          	setne  dil
  4022a4:	40 0f b6 ff          	movzx  edi,dil
  4022a8:	01 fa                	add    edx,edi
  4022aa:	83 fe 0d             	cmp    esi,0xd
  4022ad:	74 51                	je     402300 <benchmark_hamming_length+0x740>
  4022af:	0f b7 78 1a          	movzx  edi,WORD PTR [rax+0x1a]
  4022b3:	66 39 79 1a          	cmp    WORD PTR [rcx+0x1a],di
  4022b7:	40 0f 95 c7          	setne  dil
  4022bb:	40 0f b6 ff          	movzx  edi,dil
  4022bf:	01 fa                	add    edx,edi
  4022c1:	83 fe 0e             	cmp    esi,0xe
  4022c4:	74 3a                	je     402300 <benchmark_hamming_length+0x740>
  4022c6:	0f b7 40 1c          	movzx  eax,WORD PTR [rax+0x1c]
  4022ca:	66 39 41 1c          	cmp    WORD PTR [rcx+0x1c],ax
  4022ce:	0f 95 c0             	setne  al
  4022d1:	0f b6 c0             	movzx  eax,al
  4022d4:	01 c2                	add    edx,eax
  4022d6:	c5 f8 77             	vzeroupper 
  4022d9:	eb 28                	jmp    402303 <benchmark_hamming_length+0x743>
  4022db:	45 85 c0             	test   r8d,r8d
  4022de:	0f 85 5c fd ff ff    	jne    402040 <benchmark_hamming_length+0x480>
  4022e4:	89 de                	mov    esi,ebx
  4022e6:	4c 89 f8             	mov    rax,r15
  4022e9:	4c 89 e1             	mov    rcx,r12
  4022ec:	31 d2                	xor    edx,edx
  4022ee:	e9 87 fd ff ff       	jmp    40207a <benchmark_hamming_length+0x4ba>
  4022f3:	41 89 d8             	mov    r8d,ebx
  4022f6:	44 8d 6b ff          	lea    r13d,[rbx-0x1]
  4022fa:	e9 41 fd ff ff       	jmp    402040 <benchmark_hamming_length+0x480>
  4022ff:	90                   	nop
  402300:	c5 f8 77             	vzeroupper 
  402303:	be 04 29 40 00       	mov    esi,0x402904
  402308:	31 c0                	xor    eax,eax
  40230a:	bf 01 00 00 00       	mov    edi,0x1
  40230f:	e8 8c e2 ff ff       	call   4005a0 <__printf_chk@plt>
  402314:	4c 89 e0             	mov    rax,r12
  402317:	41 89 de             	mov    r14d,ebx
  40231a:	4c 89 65 90          	mov    QWORD PTR [rbp-0x70],r12
  40231e:	83 e0 1f             	and    eax,0x1f
  402321:	4c 89 7d 88          	mov    QWORD PTR [rbp-0x78],r15
  402325:	48 d1 e8             	shr    rax,1
  402328:	48 f7 d8             	neg    rax
  40232b:	83 e0 0f             	and    eax,0xf
  40232e:	39 d8                	cmp    eax,ebx
  402330:	0f 47 c3             	cmova  eax,ebx
  402333:	83 fb 12             	cmp    ebx,0x12
  402336:	0f 46 c3             	cmovbe eax,ebx
  402339:	41 29 c6             	sub    r14d,eax
  40233c:	89 c1                	mov    ecx,eax
  40233e:	89 45 98             	mov    DWORD PTR [rbp-0x68],eax
  402341:	41 8d 46 f0          	lea    eax,[r14-0x10]
  402345:	c1 e8 04             	shr    eax,0x4
  402348:	83 c0 01             	add    eax,0x1
  40234b:	89 85 6c ff ff ff    	mov    DWORD PTR [rbp-0x94],eax
  402351:	c1 e0 04             	shl    eax,0x4
  402354:	89 c6                	mov    esi,eax
  402356:	89 45 80             	mov    DWORD PTR [rbp-0x80],eax
  402359:	89 c8                	mov    eax,ecx
  40235b:	41 29 c5             	sub    r13d,eax
  40235e:	48 01 c0             	add    rax,rax
  402361:	49 8d 0c 04          	lea    rcx,[r12+rax*1]
  402365:	4c 01 f8             	add    rax,r15
  402368:	44 89 6d 84          	mov    DWORD PTR [rbp-0x7c],r13d
  40236c:	48 89 85 70 ff ff ff 	mov    QWORD PTR [rbp-0x90],rax
  402373:	89 f0                	mov    eax,esi
  402375:	45 31 ed             	xor    r13d,r13d
  402378:	48 01 c0             	add    rax,rax
  40237b:	48 89 8d 60 ff ff ff 	mov    QWORD PTR [rbp-0xa0],rcx
  402382:	b9 e8 03 00 00       	mov    ecx,0x3e8
  402387:	48 89 85 78 ff ff ff 	mov    QWORD PTR [rbp-0x88],rax
  40238e:	31 c0                	xor    eax,eax
  402390:	41 89 cc             	mov    r12d,ecx
  402393:	49 89 c7             	mov    r15,rax
  402396:	66 2e 0f 1f 84 00 00 	nop    WORD PTR cs:[rax+rax*1+0x0]
  40239d:	00 00 00 
  4023a0:	48 8d 75 a0          	lea    rsi,[rbp-0x60]
  4023a4:	bf 01 00 00 00       	mov    edi,0x1
  4023a9:	e8 b2 e1 ff ff       	call   400560 <clock_gettime@plt>
  4023ae:	85 db                	test   ebx,ebx
  4023b0:	0f 8e ea 03 00 00    	jle    4027a0 <benchmark_hamming_length+0xbe0>
  4023b6:	8b 7d 98             	mov    edi,DWORD PTR [rbp-0x68]
  4023b9:	31 c0                	xor    eax,eax
  4023bb:	89 de                	mov    esi,ebx
  4023bd:	48 8b 55 88          	mov    rdx,QWORD PTR [rbp-0x78]
  4023c1:	48 8b 4d 90          	mov    rcx,QWORD PTR [rbp-0x70]
  4023c5:	85 ff                	test   edi,edi
  4023c7:	74 33                	je     4023fc <benchmark_hamming_length+0x83c>
  4023c9:	0f 1f 80 00 00 00 00 	nop    DWORD PTR [rax+0x0]
  4023d0:	0f b7 3a             	movzx  edi,WORD PTR [rdx]
  4023d3:	66 39 39             	cmp    WORD PTR [rcx],di
  4023d6:	40 0f 95 c7          	setne  dil
  4023da:	83 ee 01             	sub    esi,0x1
  4023dd:	48 83 c1 02          	add    rcx,0x2
  4023e1:	40 0f b6 ff          	movzx  edi,dil
  4023e5:	48 83 c2 02          	add    rdx,0x2
  4023e9:	01 f8                	add    eax,edi
  4023eb:	44 39 f6             	cmp    esi,r14d
  4023ee:	75 e0                	jne    4023d0 <benchmark_hamming_length+0x810>
  4023f0:	3b 5d 98             	cmp    ebx,DWORD PTR [rbp-0x68]
  4023f3:	0f 84 2e 02 00 00    	je     402627 <benchmark_hamming_length+0xa67>
  4023f9:	44 89 f6             	mov    esi,r14d
  4023fc:	83 7d 84 0e          	cmp    DWORD PTR [rbp-0x7c],0xe
  402400:	0f 86 ae 00 00 00    	jbe    4024b4 <benchmark_hamming_length+0x8f4>
  402406:	c5 f9 ef c0          	vpxor  xmm0,xmm0,xmm0
  40240a:	4c 8b 85 70 ff ff ff 	mov    r8,QWORD PTR [rbp-0x90]
  402411:	4c 8b 9d 60 ff ff ff 	mov    r11,QWORD PTR [rbp-0xa0]
  402418:	31 ff                	xor    edi,edi
  40241a:	45 31 c9             	xor    r9d,r9d
  40241d:	c4 c1 7a 6f 0c 38    	vmovdqu xmm1,XMMWORD PTR [r8+rdi*1]
  402423:	41 83 c1 01          	add    r9d,0x1
  402427:	c4 c3 75 38 4c 38 10 	vinserti128 ymm1,ymm1,XMMWORD PTR [r8+rdi*1+0x10],0x1
  40242e:	01 
  40242f:	c4 c1 75 75 0c 3b    	vpcmpeqw ymm1,ymm1,YMMWORD PTR [r11+rdi*1]
  402435:	48 83 c7 20          	add    rdi,0x20
  402439:	44 39 8d 6c ff ff ff 	cmp    DWORD PTR [rbp-0x94],r9d
  402440:	c5 f5 df 0d 58 05 00 	vpandn ymm1,ymm1,YMMWORD PTR [rip+0x558]        # 4029a0 <_IO_stdin_used+0xa0>
  402447:	00 
  402448:	c4 e2 7d 23 d1       	vpmovsxwd ymm2,xmm1
  40244d:	c4 e3 7d 39 c9 01    	vextracti128 xmm1,ymm1,0x1
  402453:	c5 ed fe c0          	vpaddd ymm0,ymm2,ymm0
  402457:	c4 e2 7d 23 c9       	vpmovsxwd ymm1,xmm1
  40245c:	c5 f5 fe c0          	vpaddd ymm0,ymm1,ymm0
  402460:	77 bb                	ja     40241d <benchmark_hamming_length+0x85d>
  402462:	c5 f1 ef c9          	vpxor  xmm1,xmm1,xmm1
  402466:	c4 e3 7d 46 d1 21    	vperm2i128 ymm2,ymm0,ymm1,0x21
  40246c:	c5 fd fe c2          	vpaddd ymm0,ymm0,ymm2
  402470:	c4 e3 7d 46 d1 21    	vperm2i128 ymm2,ymm0,ymm1,0x21
  402476:	c4 e3 6d 0f d0 08    	vpalignr ymm2,ymm2,ymm0,0x8
  40247c:	c5 fd fe c2          	vpaddd ymm0,ymm0,ymm2
  402480:	c4 e3 7d 46 c9 21    	vperm2i128 ymm1,ymm0,ymm1,0x21
  402486:	c4 e3 75 0f c8 04    	vpalignr ymm1,ymm1,ymm0,0x4
  40248c:	c5 fd fe c1          	vpaddd ymm0,ymm0,ymm1
  402490:	c5 f9 7e c7          	vmovd  edi,xmm0
  402494:	01 f8                	add    eax,edi
  402496:	48 8b bd 78 ff ff ff 	mov    rdi,QWORD PTR [rbp-0x88]
  40249d:	48 01 f9             	add    rcx,rdi
  4024a0:	48 01 fa             	add    rdx,rdi
  4024a3:	8b 7d 80             	mov    edi,DWORD PTR [rbp-0x80]
  4024a6:	29 fe                	sub    esi,edi
  4024a8:	44 39 f7             	cmp    edi,r14d
  4024ab:	0f 84 df 02 00 00    	je     402790 <benchmark_hamming_length+0xbd0>
  4024b1:	c5 f8 77             	vzeroupper 
  4024b4:	0f b7 39             	movzx  edi,WORD PTR [rcx]
  4024b7:	66 39 3a             	cmp    WORD PTR [rdx],di
  4024ba:	40 0f 95 c7          	setne  dil
  4024be:	40 0f b6 ff          	movzx  edi,dil
  4024c2:	01 f8                	add    eax,edi
  4024c4:	83 fe 01             	cmp    esi,0x1
  4024c7:	0f 84 5a 01 00 00    	je     402627 <benchmark_hamming_length+0xa67>
  4024cd:	0f b7 79 02          	movzx  edi,WORD PTR [rcx+0x2]
  4024d1:	66 39 7a 02          	cmp    WORD PTR [rdx+0x2],di
  4024d5:	40 0f 95 c7          	setne  dil
  4024d9:	40 0f b6 ff          	movzx  edi,dil
  4024dd:	01 f8                	add    eax,edi
  4024df:	83 fe 02             	cmp    esi,0x2
  4024e2:	0f 84 3f 01 00 00    	je     402627 <benchmark_hamming_length+0xa67>
  4024e8:	0f b7 7a 04          	movzx  edi,WORD PTR [rdx+0x4]
  4024ec:	66 39 79 04          	cmp    WORD PTR [rcx+0x4],di
  4024f0:	40 0f 95 c7          	setne  dil
  4024f4:	40 0f b6 ff          	movzx  edi,dil
  4024f8:	01 f8                	add    eax,edi
  4024fa:	83 fe 03             	cmp    esi,0x3
  4024fd:	0f 84 24 01 00 00    	je     402627 <benchmark_hamming_length+0xa67>
  402503:	0f b7 7a 06          	movzx  edi,WORD PTR [rdx+0x6]
  402507:	66 39 79 06          	cmp    WORD PTR [rcx+0x6],di
  40250b:	40 0f 95 c7          	setne  dil
  40250f:	40 0f b6 ff          	movzx  edi,dil
  402513:	01 f8                	add    eax,edi
  402515:	83 fe 04             	cmp    esi,0x4
  402518:	0f 84 09 01 00 00    	je     402627 <benchmark_hamming_length+0xa67>
  40251e:	0f b7 7a 08          	movzx  edi,WORD PTR [rdx+0x8]
  402522:	66 39 79 08          	cmp    WORD PTR [rcx+0x8],di
  402526:	40 0f 95 c7          	setne  dil
  40252a:	40 0f b6 ff          	movzx  edi,dil
  40252e:	01 f8                	add    eax,edi
  402530:	83 fe 05             	cmp    esi,0x5
  402533:	0f 84 ee 00 00 00    	je     402627 <benchmark_hamming_length+0xa67>
  402539:	0f b7 7a 0a          	movzx  edi,WORD PTR [rdx+0xa]
  40253d:	66 39 79 0a          	cmp    WORD PTR [rcx+0xa],di
  402541:	40 0f 95 c7          	setne  dil
  402545:	40 0f b6 ff          	movzx  edi,dil
  402549:	01 f8                	add    eax,edi
  40254b:	83 fe 06             	cmp    esi,0x6
  40254e:	0f 84 d3 00 00 00    	je     402627 <benchmark_hamming_length+0xa67>
  402554:	0f b7 7a 0c          	movzx  edi,WORD PTR [rdx+0xc]
  402558:	66 39 79 0c          	cmp    WORD PTR [rcx+0xc],di
  40255c:	40 0f 95 c7          	setne  dil
  402560:	40 0f b6 ff          	movzx  edi,dil
  402564:	01 f8                	add    eax,edi
  402566:	83 fe 07             	cmp    esi,0x7
  402569:	0f 84 b8 00 00 00    	je     402627 <benchmark_hamming_length+0xa67>
  40256f:	0f b7 7a 0e          	movzx  edi,WORD PTR [rdx+0xe]
  402573:	66 39 79 0e          	cmp    WORD PTR [rcx+0xe],di
  402577:	40 0f 95 c7          	setne  dil
  40257b:	40 0f b6 ff          	movzx  edi,dil
  40257f:	01 f8                	add    eax,edi
  402581:	83 fe 08             	cmp    esi,0x8
  402584:	0f 84 9d 00 00 00    	je     402627 <benchmark_hamming_length+0xa67>
  40258a:	0f b7 7a 10          	movzx  edi,WORD PTR [rdx+0x10]
  40258e:	66 39 79 10          	cmp    WORD PTR [rcx+0x10],di
  402592:	40 0f 95 c7          	setne  dil
  402596:	40 0f b6 ff          	movzx  edi,dil
  40259a:	01 f8                	add    eax,edi
  40259c:	83 fe 09             	cmp    esi,0x9
  40259f:	0f 84 82 00 00 00    	je     402627 <benchmark_hamming_length+0xa67>
  4025a5:	0f b7 7a 12          	movzx  edi,WORD PTR [rdx+0x12]
  4025a9:	66 39 79 12          	cmp    WORD PTR [rcx+0x12],di
  4025ad:	40 0f 95 c7          	setne  dil
  4025b1:	40 0f b6 ff          	movzx  edi,dil
  4025b5:	01 f8                	add    eax,edi
  4025b7:	83 fe 0a             	cmp    esi,0xa
  4025ba:	74 6b                	je     402627 <benchmark_hamming_length+0xa67>
  4025bc:	0f b7 7a 14          	movzx  edi,WORD PTR [rdx+0x14]
  4025c0:	66 39 79 14          	cmp    WORD PTR [rcx+0x14],di
  4025c4:	40 0f 95 c7          	setne  dil
  4025c8:	40 0f b6 ff          	movzx  edi,dil
  4025cc:	01 f8                	add    eax,edi
  4025ce:	83 fe 0b             	cmp    esi,0xb
  4025d1:	74 54                	je     402627 <benchmark_hamming_length+0xa67>
  4025d3:	0f b7 7a 16          	movzx  edi,WORD PTR [rdx+0x16]
  4025d7:	66 39 79 16          	cmp    WORD PTR [rcx+0x16],di
  4025db:	40 0f 95 c7          	setne  dil
  4025df:	40 0f b6 ff          	movzx  edi,dil
  4025e3:	01 f8                	add    eax,edi
  4025e5:	83 fe 0c             	cmp    esi,0xc
  4025e8:	74 3d                	je     402627 <benchmark_hamming_length+0xa67>
  4025ea:	0f b7 7a 18          	movzx  edi,WORD PTR [rdx+0x18]
  4025ee:	66 39 79 18          	cmp    WORD PTR [rcx+0x18],di
  4025f2:	40 0f 95 c7          	setne  dil
  4025f6:	40 0f b6 ff          	movzx  edi,dil
  4025fa:	01 f8                	add    eax,edi
  4025fc:	83 fe 0d             	cmp    esi,0xd
  4025ff:	74 26                	je     402627 <benchmark_hamming_length+0xa67>
  402601:	0f b7 7a 1a          	movzx  edi,WORD PTR [rdx+0x1a]
  402605:	66 39 79 1a          	cmp    WORD PTR [rcx+0x1a],di
  402609:	40 0f 95 c7          	setne  dil
  40260d:	40 0f b6 ff          	movzx  edi,dil
  402611:	01 f8                	add    eax,edi
  402613:	83 fe 0e             	cmp    esi,0xe
  402616:	74 0f                	je     402627 <benchmark_hamming_length+0xa67>
  402618:	0f b7 72 1c          	movzx  esi,WORD PTR [rdx+0x1c]
  40261c:	31 d2                	xor    edx,edx
  40261e:	66 39 71 1c          	cmp    WORD PTR [rcx+0x1c],si
  402622:	0f 95 c2             	setne  dl
  402625:	01 d0                	add    eax,edx
  402627:	48 98                	cdqe   
  402629:	48 8d 75 b0          	lea    rsi,[rbp-0x50]
  40262d:	bf 01 00 00 00       	mov    edi,0x1
  402632:	49 01 c7             	add    r15,rax
  402635:	e8 26 df ff ff       	call   400560 <clock_gettime@plt>
  40263a:	48 8b 45 b0          	mov    rax,QWORD PTR [rbp-0x50]
  40263e:	48 2b 45 a0          	sub    rax,QWORD PTR [rbp-0x60]
  402642:	48 69 c0 00 ca 9a 3b 	imul   rax,rax,0x3b9aca00
  402649:	48 03 45 b8          	add    rax,QWORD PTR [rbp-0x48]
  40264d:	48 2b 45 a8          	sub    rax,QWORD PTR [rbp-0x58]
  402651:	49 01 c5             	add    r13,rax
  402654:	41 83 ec 01          	sub    r12d,0x1
  402658:	0f 85 42 fd ff ff    	jne    4023a0 <benchmark_hamming_length+0x7e0>
  40265e:	4c 89 fa             	mov    rdx,r15
  402661:	be 07 29 40 00       	mov    esi,0x402907
  402666:	bf 01 00 00 00       	mov    edi,0x1
  40266b:	31 c0                	xor    eax,eax
  40266d:	4c 8b 65 90          	mov    r12,QWORD PTR [rbp-0x70]
  402671:	4c 8b 7d 88          	mov    r15,QWORD PTR [rbp-0x78]
  402675:	e8 26 df ff ff       	call   4005a0 <__printf_chk@plt>
  40267a:	89 da                	mov    edx,ebx
  40267c:	be 0c 29 40 00       	mov    esi,0x40290c
  402681:	bf 01 00 00 00       	mov    edi,0x1
  402686:	31 c0                	xor    eax,eax
  402688:	48 bb 53 5a 9b a0 2f 	movabs rbx,0x44b82fa09b5a53
  40268f:	b8 44 00 
  402692:	49 be cf f7 53 e3 a5 	movabs r14,0x20c49ba5e353f7cf
  402699:	9b c4 20 
  40269c:	e8 ff de ff ff       	call   4005a0 <__printf_chk@plt>
  4026a1:	4c 89 ea             	mov    rdx,r13
  4026a4:	bf 01 00 00 00       	mov    edi,0x1
  4026a9:	48 c1 ea 09          	shr    rdx,0x9
  4026ad:	48 89 d0             	mov    rax,rdx
  4026b0:	48 f7 e3             	mul    rbx
  4026b3:	48 89 d6             	mov    rsi,rdx
  4026b6:	4c 89 ea             	mov    rdx,r13
  4026b9:	48 c1 ee 0b          	shr    rsi,0xb
  4026bd:	48 69 c6 00 ca 9a 3b 	imul   rax,rsi,0x3b9aca00
  4026c4:	48 29 c2             	sub    rdx,rax
  4026c7:	48 c1 ea 03          	shr    rdx,0x3
  4026cb:	48 89 d0             	mov    rax,rdx
  4026ce:	49 f7 e6             	mul    r14
  4026d1:	31 c0                	xor    eax,eax
  4026d3:	48 89 d1             	mov    rcx,rdx
  4026d6:	48 89 f2             	mov    rdx,rsi
  4026d9:	be 28 29 40 00       	mov    esi,0x402928
  4026de:	48 c1 e9 04          	shr    rcx,0x4
  4026e2:	e8 b9 de ff ff       	call   4005a0 <__printf_chk@plt>
  4026e7:	4c 89 ea             	mov    rdx,r13
  4026ea:	be 58 29 40 00       	mov    esi,0x402958
  4026ef:	bf 01 00 00 00       	mov    edi,0x1
  4026f4:	48 c1 ea 03          	shr    rdx,0x3
  4026f8:	48 89 d0             	mov    rax,rdx
  4026fb:	49 f7 e6             	mul    r14
  4026fe:	48 89 d1             	mov    rcx,rdx
  402701:	48 c1 ea 0d          	shr    rdx,0xd
  402705:	48 89 d0             	mov    rax,rdx
  402708:	48 c1 e9 04          	shr    rcx,0x4
  40270c:	48 f7 e3             	mul    rbx
  40270f:	48 89 d0             	mov    rax,rdx
  402712:	48 c1 e8 0b          	shr    rax,0xb
  402716:	48 69 c0 00 ca 9a 3b 	imul   rax,rax,0x3b9aca00
  40271d:	48 29 c1             	sub    rcx,rax
  402720:	48 c1 e9 03          	shr    rcx,0x3
  402724:	48 89 c8             	mov    rax,rcx
  402727:	49 f7 e6             	mul    r14
  40272a:	4c 89 e8             	mov    rax,r13
  40272d:	48 89 d1             	mov    rcx,rdx
  402730:	48 ba 33 22 d4 5b 02 	movabs rdx,0x232f33025bd42233
  402737:	33 2f 23 
  40273a:	48 f7 e2             	mul    rdx
  40273d:	48 c1 e9 04          	shr    rcx,0x4
  402741:	31 c0                	xor    eax,eax
  402743:	48 c1 ea 25          	shr    rdx,0x25
  402747:	e8 54 de ff ff       	call   4005a0 <__printf_chk@plt>
  40274c:	4c 89 e7             	mov    rdi,r12
  40274f:	e8 fc dd ff ff       	call   400550 <free@plt>
  402754:	48 8b 45 c8          	mov    rax,QWORD PTR [rbp-0x38]
  402758:	64 48 33 04 25 28 00 	xor    rax,QWORD PTR fs:0x28
  40275f:	00 00 
  402761:	0f 85 fd 00 00 00    	jne    402864 <benchmark_hamming_length+0xca4>
  402767:	48 81 c4 88 00 00 00 	add    rsp,0x88
  40276e:	4c 89 ff             	mov    rdi,r15
  402771:	5b                   	pop    rbx
  402772:	41 5c                	pop    r12
  402774:	41 5d                	pop    r13
  402776:	41 5e                	pop    r14
  402778:	41 5f                	pop    r15
  40277a:	5d                   	pop    rbp
  40277b:	49 8d 65 f0          	lea    rsp,[r13-0x10]
  40277f:	41 5d                	pop    r13
  402781:	e9 ca dd ff ff       	jmp    400550 <free@plt>
  402786:	66 2e 0f 1f 84 00 00 	nop    WORD PTR cs:[rax+rax*1+0x0]
  40278d:	00 00 00 
  402790:	c5 f8 77             	vzeroupper 
  402793:	e9 8f fe ff ff       	jmp    402627 <benchmark_hamming_length+0xa67>
  402798:	0f 1f 84 00 00 00 00 	nop    DWORD PTR [rax+rax*1+0x0]
  40279f:	00 
  4027a0:	31 c0                	xor    eax,eax
  4027a2:	e9 82 fe ff ff       	jmp    402629 <benchmark_hamming_length+0xa69>
  4027a7:	45 85 c0             	test   r8d,r8d
  4027aa:	0f 85 b9 00 00 00    	jne    402869 <benchmark_hamming_length+0xca9>
  4027b0:	31 d2                	xor    edx,edx
  4027b2:	31 c0                	xor    eax,eax
  4027b4:	e9 8c f6 ff ff       	jmp    401e45 <benchmark_hamming_length+0x285>
  4027b9:	31 d2                	xor    edx,edx
  4027bb:	44 8d 6b ff          	lea    r13d,[rbx-0x1]
  4027bf:	e9 3f fb ff ff       	jmp    402303 <benchmark_hamming_length+0x743>
  4027c4:	b8 07 00 00 00       	mov    eax,0x7
  4027c9:	e9 6f f6 ff ff       	jmp    401e3d <benchmark_hamming_length+0x27d>
  4027ce:	b8 08 00 00 00       	mov    eax,0x8
  4027d3:	e9 65 f6 ff ff       	jmp    401e3d <benchmark_hamming_length+0x27d>
  4027d8:	b8 06 00 00 00       	mov    eax,0x6
  4027dd:	e9 5b f6 ff ff       	jmp    401e3d <benchmark_hamming_length+0x27d>
  4027e2:	b8 01 00 00 00       	mov    eax,0x1
  4027e7:	e9 51 f6 ff ff       	jmp    401e3d <benchmark_hamming_length+0x27d>
  4027ec:	b8 05 00 00 00       	mov    eax,0x5
  4027f1:	e9 47 f6 ff ff       	jmp    401e3d <benchmark_hamming_length+0x27d>
  4027f6:	b8 0e 00 00 00       	mov    eax,0xe
  4027fb:	e9 3d f6 ff ff       	jmp    401e3d <benchmark_hamming_length+0x27d>
  402800:	b8 0f 00 00 00       	mov    eax,0xf
  402805:	e9 33 f6 ff ff       	jmp    401e3d <benchmark_hamming_length+0x27d>
  40280a:	b8 10 00 00 00       	mov    eax,0x10
  40280f:	e9 29 f6 ff ff       	jmp    401e3d <benchmark_hamming_length+0x27d>
  402814:	b8 09 00 00 00       	mov    eax,0x9
  402819:	e9 1f f6 ff ff       	jmp    401e3d <benchmark_hamming_length+0x27d>
  40281e:	b8 0a 00 00 00       	mov    eax,0xa
  402823:	e9 15 f6 ff ff       	jmp    401e3d <benchmark_hamming_length+0x27d>
  402828:	b8 0b 00 00 00       	mov    eax,0xb
  40282d:	e9 0b f6 ff ff       	jmp    401e3d <benchmark_hamming_length+0x27d>
  402832:	b8 0c 00 00 00       	mov    eax,0xc
  402837:	e9 01 f6 ff ff       	jmp    401e3d <benchmark_hamming_length+0x27d>
  40283c:	b8 0d 00 00 00       	mov    eax,0xd
  402841:	e9 f7 f5 ff ff       	jmp    401e3d <benchmark_hamming_length+0x27d>
  402846:	b8 02 00 00 00       	mov    eax,0x2
  40284b:	e9 ed f5 ff ff       	jmp    401e3d <benchmark_hamming_length+0x27d>
  402850:	b8 03 00 00 00       	mov    eax,0x3
  402855:	e9 e3 f5 ff ff       	jmp    401e3d <benchmark_hamming_length+0x27d>
  40285a:	b8 04 00 00 00       	mov    eax,0x4
  40285f:	e9 d9 f5 ff ff       	jmp    401e3d <benchmark_hamming_length+0x27d>
  402864:	e8 07 dd ff ff       	call   400570 <__stack_chk_fail@plt>
  402869:	44 89 c2             	mov    edx,r8d
  40286c:	e9 cb f3 ff ff       	jmp    401c3c <benchmark_hamming_length+0x7c>
  402871:	66 2e 0f 1f 84 00 00 	nop    WORD PTR cs:[rax+rax*1+0x0]
  402878:	00 00 00 
  40287b:	0f 1f 44 00 00       	nop    DWORD PTR [rax+rax*1+0x0]

0000000000402880 <__libc_csu_init>:
  402880:	41 57                	push   r15
  402882:	41 56                	push   r14
  402884:	41 89 ff             	mov    r15d,edi
  402887:	41 55                	push   r13
  402889:	41 54                	push   r12
  40288b:	4c 8d 25 7e 05 20 00 	lea    r12,[rip+0x20057e]        # 602e10 <__frame_dummy_init_array_entry>
  402892:	55                   	push   rbp
  402893:	48 8d 2d 7e 05 20 00 	lea    rbp,[rip+0x20057e]        # 602e18 <__init_array_end>
  40289a:	53                   	push   rbx
  40289b:	49 89 f6             	mov    r14,rsi
  40289e:	49 89 d5             	mov    r13,rdx
  4028a1:	4c 29 e5             	sub    rbp,r12
  4028a4:	48 83 ec 08          	sub    rsp,0x8
  4028a8:	48 c1 fd 03          	sar    rbp,0x3
  4028ac:	e8 67 dc ff ff       	call   400518 <_init>
  4028b1:	48 85 ed             	test   rbp,rbp
  4028b4:	74 20                	je     4028d6 <__libc_csu_init+0x56>
  4028b6:	31 db                	xor    ebx,ebx
  4028b8:	0f 1f 84 00 00 00 00 	nop    DWORD PTR [rax+rax*1+0x0]
  4028bf:	00 
  4028c0:	4c 89 ea             	mov    rdx,r13
  4028c3:	4c 89 f6             	mov    rsi,r14
  4028c6:	44 89 ff             	mov    edi,r15d
  4028c9:	41 ff 14 dc          	call   QWORD PTR [r12+rbx*8]
  4028cd:	48 83 c3 01          	add    rbx,0x1
  4028d1:	48 39 eb             	cmp    rbx,rbp
  4028d4:	75 ea                	jne    4028c0 <__libc_csu_init+0x40>
  4028d6:	48 83 c4 08          	add    rsp,0x8
  4028da:	5b                   	pop    rbx
  4028db:	5d                   	pop    rbp
  4028dc:	41 5c                	pop    r12
  4028de:	41 5d                	pop    r13
  4028e0:	41 5e                	pop    r14
  4028e2:	41 5f                	pop    r15
  4028e4:	c3                   	ret    
  4028e5:	90                   	nop
  4028e6:	66 2e 0f 1f 84 00 00 	nop    WORD PTR cs:[rax+rax*1+0x0]
  4028ed:	00 00 00 

00000000004028f0 <__libc_csu_fini>:
  4028f0:	f3 c3                	repz ret 

Disassembly of section .fini:

00000000004028f4 <_fini>:
  4028f4:	48 83 ec 08          	sub    rsp,0x8
  4028f8:	48 83 c4 08          	add    rsp,0x8
  4028fc:	c3                   	ret    
